

Microchip MPLAB XC8 Assembler V2.10 build 88905656 
                                                                                               Sun Sep  6 23:47:41 2020

Microchip MPLAB XC8 C Compiler v2.10 (Free license) build 20190730164152 Og1 
     1                           	processor	16F18857
     2                           	opt	pw 120
     3                           	opt	flic
     4                           	psect	idataBANK1,global,class=CODE,delta=2
     5                           	psect	nvBANK1,global,class=BANK1,space=1,delta=1
     6                           	psect	cinit,global,class=CODE,merge=1,delta=2
     7                           	psect	bssCOMMON,global,class=COMMON,space=1,delta=1
     8                           	psect	bssBANK1,global,class=BANK1,space=1,delta=1
     9                           	psect	dataBANK1,global,class=BANK1,space=1,delta=1
    10                           	psect	bssBANK2,global,class=BANK2,space=1,delta=1
    11                           	psect	bssBANK3,global,class=BANK3,space=1,delta=1
    12                           	psect	inittext,global,class=CODE,delta=2
    13                           	psect	clrtext,global,class=CODE,delta=2
    14                           	psect	cstackBANK1,global,class=BANK1,space=1,delta=1
    15                           	psect	cstackCOMMON,global,class=COMMON,space=1,delta=1
    16                           	psect	cstackBANK0,global,class=BANK0,space=1,delta=1
    17                           	psect	maintext,global,class=CODE,merge=1,split=1,delta=2
    18                           	psect	text1,local,class=CODE,merge=1,inline,delta=2
    19                           	psect	text2,local,class=CODE,merge=1,delta=2
    20                           	psect	text3,local,class=CODE,merge=1,delta=2
    21                           	psect	text4,local,class=CODE,merge=1,delta=2
    22                           	psect	text5,local,class=CODE,merge=1,delta=2
    23                           	psect	text6,local,class=CODE,merge=1,delta=2
    24                           	psect	text7,local,class=CODE,merge=1,delta=2
    25                           	psect	text8,local,class=CODE,merge=1,delta=2
    26                           	psect	text9,local,class=CODE,merge=1,delta=2
    27                           	psect	text10,local,class=CODE,merge=1,delta=2
    28                           	psect	text11,local,class=CODE,merge=1,delta=2
    29                           	psect	text12,local,class=CODE,merge=1,delta=2
    30                           	psect	text13,local,class=CODE,merge=1,delta=2
    31                           	psect	text14,local,class=CODE,merge=1,delta=2
    32                           	psect	text15,local,class=CODE,merge=1,delta=2
    33                           	psect	intentry,global,class=CODE,delta=2
    34                           	psect	text17,local,class=CODE,merge=1,delta=2
    35                           	psect	text18,local,class=CODE,merge=1,delta=2
    36                           	psect	text19,local,class=CODE,merge=1,delta=2
    37                           	psect	text20,local,class=CODE,merge=1,delta=2
    38                           	psect	text21,local,class=CODE,merge=1,delta=2
    39                           	psect	text22,local,class=CODE,merge=1,delta=2
    40                           	psect	text23,local,class=CODE,merge=1,delta=2
    41                           	psect	text24,local,class=CODE,merge=1,delta=2
    42                           	dabs	1,0x7E,2
    43  0000                     
    44                           ; Version 2.10
    45                           ; Generated 31/07/2019 GMT
    46                           ; 
    47                           ; Copyright © 2019, Microchip Technology Inc. and its subsidiaries ("Microchip")
    48                           ; All rights reserved.
    49                           ; 
    50                           ; This software is developed by Microchip Technology Inc. and its subsidiaries ("Microch
      +                          ip").
    51                           ; 
    52                           ; Redistribution and use in source and binary forms, with or without modification, are
    53                           ; permitted provided that the following conditions are met:
    54                           ; 
    55                           ;     1. Redistributions of source code must retain the above copyright notice, this lis
      +                          t of
    56                           ;        conditions and the following disclaimer.
    57                           ; 
    58                           ;     2. Redistributions in binary form must reproduce the above copyright notice, this 
      +                          list
    59                           ;        of conditions and the following disclaimer in the documentation and/or other
    60                           ;        materials provided with the distribution.
    61                           ; 
    62                           ;     3. Microchip's name may not be used to endorse or promote products derived from th
      +                          is
    63                           ;        software without specific prior written permission.
    64                           ; 
    65                           ; THIS SOFTWARE IS PROVIDED BY MICROCHIP "AS IS" AND ANY EXPRESS OR IMPLIED WARRANTIES,
    66                           ; INCLUDING, BUT NOT LIMITED TO, THE IMPLIED WARRANTIES OF MERCHANTABILITY AND FITNESS F
      +                          OR
    67                           ; PURPOSE ARE DISCLAIMED.  IN NO EVENT SHALL MICROCHIP BE LIABLE FOR ANY DIRECT, INDIREC
      +                          T,
    68                           ; INCIDENTAL, SPECIAL, EXEMPLARY, OR CONSEQUENTIAL DAMAGES (INCLUDING BUT NOT LIMITED TO
    69                           ; PROCUREMENT OF SUBSTITUTE GOODS OR SERVICES; LOSS OF USE, DATA OR PROFITS; OR BUSINESS
    70                           ; INTERRUPTION) HOWSOEVER CAUSED AND ON ANY THEORY OF LIABILITY, WHETHER IN CONTRACT, ST
      +                          RICT
    71                           ; LIABILITY, OR TORT (INCLUDING NEGLIGENCE OR OTHERWISE) ARISING IN ANY WAY OUT OF THE U
      +                          SE OF
    72                           ; THIS SOFTWARE, EVEN IF ADVISED OF THE POSSIBILITY OF SUCH DAMAGE.
    73                           ; 
    74                           ; 
    75                           ; Code-generator required, PIC16F18857 Definitions
    76                           ; 
    77                           ; SFR Addresses
    78  0000                     	;# 
    79  0001                     	;# 
    80  0002                     	;# 
    81  0003                     	;# 
    82  0004                     	;# 
    83  0005                     	;# 
    84  0006                     	;# 
    85  0007                     	;# 
    86  0008                     	;# 
    87  0009                     	;# 
    88  000A                     	;# 
    89  000B                     	;# 
    90  000C                     	;# 
    91  000D                     	;# 
    92  000E                     	;# 
    93  0010                     	;# 
    94  0011                     	;# 
    95  0012                     	;# 
    96  0013                     	;# 
    97  0016                     	;# 
    98  0017                     	;# 
    99  0018                     	;# 
   100  001C                     	;# 
   101  001C                     	;# 
   102  001D                     	;# 
   103  001D                     	;# 
   104  001E                     	;# 
   105  001F                     	;# 
   106  008C                     	;# 
   107  008C                     	;# 
   108  008D                     	;# 
   109  008E                     	;# 
   110  008E                     	;# 
   111  008F                     	;# 
   112  0090                     	;# 
   113  0090                     	;# 
   114  0091                     	;# 
   115  0093                     	;# 
   116  0094                     	;# 
   117  0095                     	;# 
   118  0096                     	;# 
   119  0097                     	;# 
   120  0098                     	;# 
   121  0099                     	;# 
   122  009A                     	;# 
   123  009B                     	;# 
   124  009C                     	;# 
   125  009D                     	;# 
   126  009E                     	;# 
   127  010C                     	;# 
   128  010D                     	;# 
   129  010E                     	;# 
   130  010E                     	;# 
   131  010F                     	;# 
   132  0110                     	;# 
   133  0110                     	;# 
   134  0111                     	;# 
   135  0112                     	;# 
   136  0112                     	;# 
   137  0113                     	;# 
   138  0114                     	;# 
   139  0114                     	;# 
   140  0115                     	;# 
   141  0116                     	;# 
   142  0116                     	;# 
   143  0117                     	;# 
   144  0119                     	;# 
   145  0119                     	;# 
   146  0119                     	;# 
   147  011A                     	;# 
   148  011A                     	;# 
   149  011A                     	;# 
   150  011B                     	;# 
   151  011B                     	;# 
   152  011B                     	;# 
   153  011B                     	;# 
   154  011B                     	;# 
   155  011C                     	;# 
   156  011C                     	;# 
   157  011C                     	;# 
   158  011D                     	;# 
   159  011D                     	;# 
   160  011D                     	;# 
   161  011E                     	;# 
   162  011E                     	;# 
   163  011E                     	;# 
   164  011F                     	;# 
   165  011F                     	;# 
   166  011F                     	;# 
   167  011F                     	;# 
   168  011F                     	;# 
   169  018C                     	;# 
   170  018D                     	;# 
   171  018E                     	;# 
   172  018F                     	;# 
   173  0190                     	;# 
   174  0191                     	;# 
   175  0192                     	;# 
   176  0196                     	;# 
   177  0197                     	;# 
   178  0198                     	;# 
   179  0199                     	;# 
   180  019A                     	;# 
   181  019B                     	;# 
   182  019C                     	;# 
   183  020C                     	;# 
   184  020C                     	;# 
   185  020D                     	;# 
   186  020E                     	;# 
   187  020F                     	;# 
   188  020F                     	;# 
   189  0210                     	;# 
   190  0210                     	;# 
   191  0211                     	;# 
   192  0211                     	;# 
   193  0212                     	;# 
   194  0212                     	;# 
   195  0213                     	;# 
   196  0214                     	;# 
   197  0215                     	;# 
   198  0215                     	;# 
   199  0216                     	;# 
   200  0216                     	;# 
   201  0217                     	;# 
   202  0217                     	;# 
   203  0218                     	;# 
   204  0218                     	;# 
   205  0219                     	;# 
   206  021A                     	;# 
   207  021B                     	;# 
   208  021B                     	;# 
   209  021C                     	;# 
   210  021C                     	;# 
   211  021D                     	;# 
   212  021D                     	;# 
   213  021E                     	;# 
   214  021F                     	;# 
   215  028C                     	;# 
   216  028C                     	;# 
   217  028D                     	;# 
   218  028D                     	;# 
   219  028E                     	;# 
   220  028F                     	;# 
   221  0290                     	;# 
   222  0290                     	;# 
   223  0291                     	;# 
   224  0292                     	;# 
   225  0292                     	;# 
   226  0293                     	;# 
   227  0293                     	;# 
   228  0294                     	;# 
   229  0295                     	;# 
   230  0296                     	;# 
   231  0296                     	;# 
   232  0297                     	;# 
   233  0298                     	;# 
   234  0298                     	;# 
   235  0299                     	;# 
   236  0299                     	;# 
   237  029A                     	;# 
   238  029B                     	;# 
   239  029C                     	;# 
   240  029C                     	;# 
   241  029D                     	;# 
   242  030C                     	;# 
   243  030C                     	;# 
   244  030D                     	;# 
   245  030E                     	;# 
   246  030F                     	;# 
   247  0310                     	;# 
   248  0310                     	;# 
   249  0311                     	;# 
   250  0312                     	;# 
   251  0313                     	;# 
   252  0314                     	;# 
   253  0314                     	;# 
   254  0315                     	;# 
   255  0316                     	;# 
   256  0317                     	;# 
   257  0318                     	;# 
   258  0318                     	;# 
   259  0319                     	;# 
   260  031A                     	;# 
   261  031B                     	;# 
   262  031C                     	;# 
   263  031C                     	;# 
   264  031D                     	;# 
   265  031E                     	;# 
   266  031F                     	;# 
   267  038C                     	;# 
   268  038C                     	;# 
   269  038D                     	;# 
   270  038E                     	;# 
   271  0390                     	;# 
   272  0390                     	;# 
   273  0391                     	;# 
   274  0392                     	;# 
   275  040C                     	;# 
   276  040D                     	;# 
   277  040E                     	;# 
   278  040F                     	;# 
   279  0410                     	;# 
   280  0411                     	;# 
   281  0416                     	;# 
   282  0416                     	;# 
   283  0417                     	;# 
   284  0418                     	;# 
   285  0418                     	;# 
   286  0419                     	;# 
   287  041A                     	;# 
   288  041A                     	;# 
   289  041B                     	;# 
   290  041C                     	;# 
   291  041C                     	;# 
   292  041D                     	;# 
   293  041E                     	;# 
   294  041F                     	;# 
   295  048C                     	;# 
   296  048C                     	;# 
   297  048D                     	;# 
   298  048E                     	;# 
   299  048F                     	;# 
   300  048F                     	;# 
   301  0490                     	;# 
   302  0491                     	;# 
   303  0492                     	;# 
   304  0492                     	;# 
   305  0493                     	;# 
   306  0494                     	;# 
   307  0495                     	;# 
   308  0495                     	;# 
   309  0496                     	;# 
   310  0497                     	;# 
   311  0498                     	;# 
   312  0499                     	;# 
   313  049A                     	;# 
   314  049B                     	;# 
   315  049C                     	;# 
   316  049D                     	;# 
   317  050C                     	;# 
   318  050C                     	;# 
   319  050D                     	;# 
   320  050E                     	;# 
   321  050F                     	;# 
   322  050F                     	;# 
   323  0510                     	;# 
   324  0511                     	;# 
   325  0512                     	;# 
   326  0512                     	;# 
   327  0513                     	;# 
   328  0514                     	;# 
   329  0515                     	;# 
   330  0515                     	;# 
   331  0516                     	;# 
   332  0517                     	;# 
   333  0518                     	;# 
   334  0519                     	;# 
   335  051A                     	;# 
   336  051B                     	;# 
   337  051C                     	;# 
   338  051D                     	;# 
   339  058C                     	;# 
   340  058C                     	;# 
   341  058D                     	;# 
   342  058E                     	;# 
   343  058F                     	;# 
   344  058F                     	;# 
   345  0590                     	;# 
   346  0591                     	;# 
   347  0592                     	;# 
   348  0593                     	;# 
   349  060C                     	;# 
   350  060D                     	;# 
   351  060E                     	;# 
   352  060F                     	;# 
   353  0610                     	;# 
   354  0611                     	;# 
   355  0612                     	;# 
   356  0613                     	;# 
   357  0614                     	;# 
   358  0616                     	;# 
   359  0617                     	;# 
   360  0618                     	;# 
   361  0619                     	;# 
   362  061A                     	;# 
   363  061B                     	;# 
   364  061C                     	;# 
   365  061D                     	;# 
   366  061E                     	;# 
   367  068C                     	;# 
   368  068D                     	;# 
   369  068E                     	;# 
   370  068F                     	;# 
   371  0690                     	;# 
   372  0691                     	;# 
   373  0692                     	;# 
   374  0693                     	;# 
   375  0694                     	;# 
   376  070C                     	;# 
   377  070D                     	;# 
   378  070E                     	;# 
   379  070F                     	;# 
   380  0710                     	;# 
   381  0711                     	;# 
   382  0712                     	;# 
   383  0713                     	;# 
   384  0714                     	;# 
   385  0716                     	;# 
   386  0717                     	;# 
   387  0718                     	;# 
   388  0719                     	;# 
   389  071A                     	;# 
   390  071B                     	;# 
   391  071C                     	;# 
   392  071D                     	;# 
   393  071E                     	;# 
   394  0796                     	;# 
   395  0797                     	;# 
   396  0798                     	;# 
   397  0799                     	;# 
   398  079A                     	;# 
   399  079B                     	;# 
   400  080C                     	;# 
   401  080D                     	;# 
   402  080E                     	;# 
   403  080F                     	;# 
   404  0810                     	;# 
   405  0811                     	;# 
   406  0812                     	;# 
   407  0813                     	;# 
   408  0814                     	;# 
   409  081A                     	;# 
   410  081B                     	;# 
   411  081C                     	;# 
   412  081D                     	;# 
   413  081E                     	;# 
   414  081F                     	;# 
   415  088C                     	;# 
   416  088D                     	;# 
   417  088E                     	;# 
   418  088F                     	;# 
   419  0890                     	;# 
   420  0891                     	;# 
   421  0892                     	;# 
   422  0893                     	;# 
   423  0895                     	;# 
   424  0896                     	;# 
   425  0897                     	;# 
   426  0898                     	;# 
   427  0899                     	;# 
   428  089A                     	;# 
   429  089B                     	;# 
   430  090C                     	;# 
   431  090E                     	;# 
   432  090F                     	;# 
   433  091F                     	;# 
   434  098F                     	;# 
   435  098F                     	;# 
   436  0990                     	;# 
   437  0991                     	;# 
   438  0992                     	;# 
   439  0993                     	;# 
   440  0994                     	;# 
   441  0995                     	;# 
   442  0996                     	;# 
   443  0997                     	;# 
   444  1E0F                     	;# 
   445  1E10                     	;# 
   446  1E11                     	;# 
   447  1E12                     	;# 
   448  1E13                     	;# 
   449  1E14                     	;# 
   450  1E15                     	;# 
   451  1E16                     	;# 
   452  1E17                     	;# 
   453  1E18                     	;# 
   454  1E19                     	;# 
   455  1E1A                     	;# 
   456  1E1B                     	;# 
   457  1E1C                     	;# 
   458  1E1D                     	;# 
   459  1E1E                     	;# 
   460  1E1F                     	;# 
   461  1E20                     	;# 
   462  1E21                     	;# 
   463  1E22                     	;# 
   464  1E23                     	;# 
   465  1E24                     	;# 
   466  1E25                     	;# 
   467  1E26                     	;# 
   468  1E27                     	;# 
   469  1E28                     	;# 
   470  1E29                     	;# 
   471  1E2A                     	;# 
   472  1E2B                     	;# 
   473  1E2C                     	;# 
   474  1E2D                     	;# 
   475  1E2E                     	;# 
   476  1E2F                     	;# 
   477  1E30                     	;# 
   478  1E31                     	;# 
   479  1E32                     	;# 
   480  1E33                     	;# 
   481  1E34                     	;# 
   482  1E35                     	;# 
   483  1E36                     	;# 
   484  1E37                     	;# 
   485  1E8F                     	;# 
   486  1E90                     	;# 
   487  1E91                     	;# 
   488  1E92                     	;# 
   489  1E93                     	;# 
   490  1E94                     	;# 
   491  1E95                     	;# 
   492  1E96                     	;# 
   493  1E97                     	;# 
   494  1E9C                     	;# 
   495  1E9D                     	;# 
   496  1E9E                     	;# 
   497  1EA1                     	;# 
   498  1EA2                     	;# 
   499  1EA3                     	;# 
   500  1EA4                     	;# 
   501  1EA5                     	;# 
   502  1EA9                     	;# 
   503  1EAA                     	;# 
   504  1EAB                     	;# 
   505  1EAC                     	;# 
   506  1EB1                     	;# 
   507  1EB2                     	;# 
   508  1EB3                     	;# 
   509  1EB8                     	;# 
   510  1EB9                     	;# 
   511  1EBA                     	;# 
   512  1EBB                     	;# 
   513  1EBC                     	;# 
   514  1EBD                     	;# 
   515  1EBE                     	;# 
   516  1EC3                     	;# 
   517  1EC5                     	;# 
   518  1EC6                     	;# 
   519  1EC7                     	;# 
   520  1EC8                     	;# 
   521  1EC9                     	;# 
   522  1ECA                     	;# 
   523  1ECB                     	;# 
   524  1ECC                     	;# 
   525  1F10                     	;# 
   526  1F11                     	;# 
   527  1F12                     	;# 
   528  1F13                     	;# 
   529  1F14                     	;# 
   530  1F15                     	;# 
   531  1F16                     	;# 
   532  1F17                     	;# 
   533  1F18                     	;# 
   534  1F19                     	;# 
   535  1F1A                     	;# 
   536  1F1B                     	;# 
   537  1F1C                     	;# 
   538  1F1D                     	;# 
   539  1F1E                     	;# 
   540  1F1F                     	;# 
   541  1F20                     	;# 
   542  1F21                     	;# 
   543  1F22                     	;# 
   544  1F23                     	;# 
   545  1F24                     	;# 
   546  1F25                     	;# 
   547  1F26                     	;# 
   548  1F27                     	;# 
   549  1F38                     	;# 
   550  1F39                     	;# 
   551  1F3A                     	;# 
   552  1F3B                     	;# 
   553  1F3C                     	;# 
   554  1F3D                     	;# 
   555  1F3E                     	;# 
   556  1F3F                     	;# 
   557  1F40                     	;# 
   558  1F41                     	;# 
   559  1F43                     	;# 
   560  1F44                     	;# 
   561  1F45                     	;# 
   562  1F46                     	;# 
   563  1F47                     	;# 
   564  1F48                     	;# 
   565  1F49                     	;# 
   566  1F4A                     	;# 
   567  1F4B                     	;# 
   568  1F4C                     	;# 
   569  1F4E                     	;# 
   570  1F4F                     	;# 
   571  1F50                     	;# 
   572  1F51                     	;# 
   573  1F52                     	;# 
   574  1F53                     	;# 
   575  1F54                     	;# 
   576  1F55                     	;# 
   577  1F56                     	;# 
   578  1F57                     	;# 
   579  1F65                     	;# 
   580  1F68                     	;# 
   581  1F69                     	;# 
   582  1F6A                     	;# 
   583  1F6B                     	;# 
   584  1FE4                     	;# 
   585  1FE5                     	;# 
   586  1FE6                     	;# 
   587  1FE7                     	;# 
   588  1FE8                     	;# 
   589  1FE9                     	;# 
   590  1FEA                     	;# 
   591  1FEB                     	;# 
   592  1FED                     	;# 
   593  1FEE                     	;# 
   594  1FEF                     	;# 
   595  0000                     	;# 
   596  0001                     	;# 
   597  0002                     	;# 
   598  0003                     	;# 
   599  0004                     	;# 
   600  0005                     	;# 
   601  0006                     	;# 
   602  0007                     	;# 
   603  0008                     	;# 
   604  0009                     	;# 
   605  000A                     	;# 
   606  000B                     	;# 
   607  000C                     	;# 
   608  000D                     	;# 
   609  000E                     	;# 
   610  0010                     	;# 
   611  0011                     	;# 
   612  0012                     	;# 
   613  0013                     	;# 
   614  0016                     	;# 
   615  0017                     	;# 
   616  0018                     	;# 
   617  001C                     	;# 
   618  001C                     	;# 
   619  001D                     	;# 
   620  001D                     	;# 
   621  001E                     	;# 
   622  001F                     	;# 
   623  008C                     	;# 
   624  008C                     	;# 
   625  008D                     	;# 
   626  008E                     	;# 
   627  008E                     	;# 
   628  008F                     	;# 
   629  0090                     	;# 
   630  0090                     	;# 
   631  0091                     	;# 
   632  0093                     	;# 
   633  0094                     	;# 
   634  0095                     	;# 
   635  0096                     	;# 
   636  0097                     	;# 
   637  0098                     	;# 
   638  0099                     	;# 
   639  009A                     	;# 
   640  009B                     	;# 
   641  009C                     	;# 
   642  009D                     	;# 
   643  009E                     	;# 
   644  010C                     	;# 
   645  010D                     	;# 
   646  010E                     	;# 
   647  010E                     	;# 
   648  010F                     	;# 
   649  0110                     	;# 
   650  0110                     	;# 
   651  0111                     	;# 
   652  0112                     	;# 
   653  0112                     	;# 
   654  0113                     	;# 
   655  0114                     	;# 
   656  0114                     	;# 
   657  0115                     	;# 
   658  0116                     	;# 
   659  0116                     	;# 
   660  0117                     	;# 
   661  0119                     	;# 
   662  0119                     	;# 
   663  0119                     	;# 
   664  011A                     	;# 
   665  011A                     	;# 
   666  011A                     	;# 
   667  011B                     	;# 
   668  011B                     	;# 
   669  011B                     	;# 
   670  011B                     	;# 
   671  011B                     	;# 
   672  011C                     	;# 
   673  011C                     	;# 
   674  011C                     	;# 
   675  011D                     	;# 
   676  011D                     	;# 
   677  011D                     	;# 
   678  011E                     	;# 
   679  011E                     	;# 
   680  011E                     	;# 
   681  011F                     	;# 
   682  011F                     	;# 
   683  011F                     	;# 
   684  011F                     	;# 
   685  011F                     	;# 
   686  018C                     	;# 
   687  018D                     	;# 
   688  018E                     	;# 
   689  018F                     	;# 
   690  0190                     	;# 
   691  0191                     	;# 
   692  0192                     	;# 
   693  0196                     	;# 
   694  0197                     	;# 
   695  0198                     	;# 
   696  0199                     	;# 
   697  019A                     	;# 
   698  019B                     	;# 
   699  019C                     	;# 
   700  020C                     	;# 
   701  020C                     	;# 
   702  020D                     	;# 
   703  020E                     	;# 
   704  020F                     	;# 
   705  020F                     	;# 
   706  0210                     	;# 
   707  0210                     	;# 
   708  0211                     	;# 
   709  0211                     	;# 
   710  0212                     	;# 
   711  0212                     	;# 
   712  0213                     	;# 
   713  0214                     	;# 
   714  0215                     	;# 
   715  0215                     	;# 
   716  0216                     	;# 
   717  0216                     	;# 
   718  0217                     	;# 
   719  0217                     	;# 
   720  0218                     	;# 
   721  0218                     	;# 
   722  0219                     	;# 
   723  021A                     	;# 
   724  021B                     	;# 
   725  021B                     	;# 
   726  021C                     	;# 
   727  021C                     	;# 
   728  021D                     	;# 
   729  021D                     	;# 
   730  021E                     	;# 
   731  021F                     	;# 
   732  028C                     	;# 
   733  028C                     	;# 
   734  028D                     	;# 
   735  028D                     	;# 
   736  028E                     	;# 
   737  028F                     	;# 
   738  0290                     	;# 
   739  0290                     	;# 
   740  0291                     	;# 
   741  0292                     	;# 
   742  0292                     	;# 
   743  0293                     	;# 
   744  0293                     	;# 
   745  0294                     	;# 
   746  0295                     	;# 
   747  0296                     	;# 
   748  0296                     	;# 
   749  0297                     	;# 
   750  0298                     	;# 
   751  0298                     	;# 
   752  0299                     	;# 
   753  0299                     	;# 
   754  029A                     	;# 
   755  029B                     	;# 
   756  029C                     	;# 
   757  029C                     	;# 
   758  029D                     	;# 
   759  030C                     	;# 
   760  030C                     	;# 
   761  030D                     	;# 
   762  030E                     	;# 
   763  030F                     	;# 
   764  0310                     	;# 
   765  0310                     	;# 
   766  0311                     	;# 
   767  0312                     	;# 
   768  0313                     	;# 
   769  0314                     	;# 
   770  0314                     	;# 
   771  0315                     	;# 
   772  0316                     	;# 
   773  0317                     	;# 
   774  0318                     	;# 
   775  0318                     	;# 
   776  0319                     	;# 
   777  031A                     	;# 
   778  031B                     	;# 
   779  031C                     	;# 
   780  031C                     	;# 
   781  031D                     	;# 
   782  031E                     	;# 
   783  031F                     	;# 
   784  038C                     	;# 
   785  038C                     	;# 
   786  038D                     	;# 
   787  038E                     	;# 
   788  0390                     	;# 
   789  0390                     	;# 
   790  0391                     	;# 
   791  0392                     	;# 
   792  040C                     	;# 
   793  040D                     	;# 
   794  040E                     	;# 
   795  040F                     	;# 
   796  0410                     	;# 
   797  0411                     	;# 
   798  0416                     	;# 
   799  0416                     	;# 
   800  0417                     	;# 
   801  0418                     	;# 
   802  0418                     	;# 
   803  0419                     	;# 
   804  041A                     	;# 
   805  041A                     	;# 
   806  041B                     	;# 
   807  041C                     	;# 
   808  041C                     	;# 
   809  041D                     	;# 
   810  041E                     	;# 
   811  041F                     	;# 
   812  048C                     	;# 
   813  048C                     	;# 
   814  048D                     	;# 
   815  048E                     	;# 
   816  048F                     	;# 
   817  048F                     	;# 
   818  0490                     	;# 
   819  0491                     	;# 
   820  0492                     	;# 
   821  0492                     	;# 
   822  0493                     	;# 
   823  0494                     	;# 
   824  0495                     	;# 
   825  0495                     	;# 
   826  0496                     	;# 
   827  0497                     	;# 
   828  0498                     	;# 
   829  0499                     	;# 
   830  049A                     	;# 
   831  049B                     	;# 
   832  049C                     	;# 
   833  049D                     	;# 
   834  050C                     	;# 
   835  050C                     	;# 
   836  050D                     	;# 
   837  050E                     	;# 
   838  050F                     	;# 
   839  050F                     	;# 
   840  0510                     	;# 
   841  0511                     	;# 
   842  0512                     	;# 
   843  0512                     	;# 
   844  0513                     	;# 
   845  0514                     	;# 
   846  0515                     	;# 
   847  0515                     	;# 
   848  0516                     	;# 
   849  0517                     	;# 
   850  0518                     	;# 
   851  0519                     	;# 
   852  051A                     	;# 
   853  051B                     	;# 
   854  051C                     	;# 
   855  051D                     	;# 
   856  058C                     	;# 
   857  058C                     	;# 
   858  058D                     	;# 
   859  058E                     	;# 
   860  058F                     	;# 
   861  058F                     	;# 
   862  0590                     	;# 
   863  0591                     	;# 
   864  0592                     	;# 
   865  0593                     	;# 
   866  060C                     	;# 
   867  060D                     	;# 
   868  060E                     	;# 
   869  060F                     	;# 
   870  0610                     	;# 
   871  0611                     	;# 
   872  0612                     	;# 
   873  0613                     	;# 
   874  0614                     	;# 
   875  0616                     	;# 
   876  0617                     	;# 
   877  0618                     	;# 
   878  0619                     	;# 
   879  061A                     	;# 
   880  061B                     	;# 
   881  061C                     	;# 
   882  061D                     	;# 
   883  061E                     	;# 
   884  068C                     	;# 
   885  068D                     	;# 
   886  068E                     	;# 
   887  068F                     	;# 
   888  0690                     	;# 
   889  0691                     	;# 
   890  0692                     	;# 
   891  0693                     	;# 
   892  0694                     	;# 
   893  070C                     	;# 
   894  070D                     	;# 
   895  070E                     	;# 
   896  070F                     	;# 
   897  0710                     	;# 
   898  0711                     	;# 
   899  0712                     	;# 
   900  0713                     	;# 
   901  0714                     	;# 
   902  0716                     	;# 
   903  0717                     	;# 
   904  0718                     	;# 
   905  0719                     	;# 
   906  071A                     	;# 
   907  071B                     	;# 
   908  071C                     	;# 
   909  071D                     	;# 
   910  071E                     	;# 
   911  0796                     	;# 
   912  0797                     	;# 
   913  0798                     	;# 
   914  0799                     	;# 
   915  079A                     	;# 
   916  079B                     	;# 
   917  080C                     	;# 
   918  080D                     	;# 
   919  080E                     	;# 
   920  080F                     	;# 
   921  0810                     	;# 
   922  0811                     	;# 
   923  0812                     	;# 
   924  0813                     	;# 
   925  0814                     	;# 
   926  081A                     	;# 
   927  081B                     	;# 
   928  081C                     	;# 
   929  081D                     	;# 
   930  081E                     	;# 
   931  081F                     	;# 
   932  088C                     	;# 
   933  088D                     	;# 
   934  088E                     	;# 
   935  088F                     	;# 
   936  0890                     	;# 
   937  0891                     	;# 
   938  0892                     	;# 
   939  0893                     	;# 
   940  0895                     	;# 
   941  0896                     	;# 
   942  0897                     	;# 
   943  0898                     	;# 
   944  0899                     	;# 
   945  089A                     	;# 
   946  089B                     	;# 
   947  090C                     	;# 
   948  090E                     	;# 
   949  090F                     	;# 
   950  091F                     	;# 
   951  098F                     	;# 
   952  098F                     	;# 
   953  0990                     	;# 
   954  0991                     	;# 
   955  0992                     	;# 
   956  0993                     	;# 
   957  0994                     	;# 
   958  0995                     	;# 
   959  0996                     	;# 
   960  0997                     	;# 
   961  1E0F                     	;# 
   962  1E10                     	;# 
   963  1E11                     	;# 
   964  1E12                     	;# 
   965  1E13                     	;# 
   966  1E14                     	;# 
   967  1E15                     	;# 
   968  1E16                     	;# 
   969  1E17                     	;# 
   970  1E18                     	;# 
   971  1E19                     	;# 
   972  1E1A                     	;# 
   973  1E1B                     	;# 
   974  1E1C                     	;# 
   975  1E1D                     	;# 
   976  1E1E                     	;# 
   977  1E1F                     	;# 
   978  1E20                     	;# 
   979  1E21                     	;# 
   980  1E22                     	;# 
   981  1E23                     	;# 
   982  1E24                     	;# 
   983  1E25                     	;# 
   984  1E26                     	;# 
   985  1E27                     	;# 
   986  1E28                     	;# 
   987  1E29                     	;# 
   988  1E2A                     	;# 
   989  1E2B                     	;# 
   990  1E2C                     	;# 
   991  1E2D                     	;# 
   992  1E2E                     	;# 
   993  1E2F                     	;# 
   994  1E30                     	;# 
   995  1E31                     	;# 
   996  1E32                     	;# 
   997  1E33                     	;# 
   998  1E34                     	;# 
   999  1E35                     	;# 
  1000  1E36                     	;# 
  1001  1E37                     	;# 
  1002  1E8F                     	;# 
  1003  1E90                     	;# 
  1004  1E91                     	;# 
  1005  1E92                     	;# 
  1006  1E93                     	;# 
  1007  1E94                     	;# 
  1008  1E95                     	;# 
  1009  1E96                     	;# 
  1010  1E97                     	;# 
  1011  1E9C                     	;# 
  1012  1E9D                     	;# 
  1013  1E9E                     	;# 
  1014  1EA1                     	;# 
  1015  1EA2                     	;# 
  1016  1EA3                     	;# 
  1017  1EA4                     	;# 
  1018  1EA5                     	;# 
  1019  1EA9                     	;# 
  1020  1EAA                     	;# 
  1021  1EAB                     	;# 
  1022  1EAC                     	;# 
  1023  1EB1                     	;# 
  1024  1EB2                     	;# 
  1025  1EB3                     	;# 
  1026  1EB8                     	;# 
  1027  1EB9                     	;# 
  1028  1EBA                     	;# 
  1029  1EBB                     	;# 
  1030  1EBC                     	;# 
  1031  1EBD                     	;# 
  1032  1EBE                     	;# 
  1033  1EC3                     	;# 
  1034  1EC5                     	;# 
  1035  1EC6                     	;# 
  1036  1EC7                     	;# 
  1037  1EC8                     	;# 
  1038  1EC9                     	;# 
  1039  1ECA                     	;# 
  1040  1ECB                     	;# 
  1041  1ECC                     	;# 
  1042  1F10                     	;# 
  1043  1F11                     	;# 
  1044  1F12                     	;# 
  1045  1F13                     	;# 
  1046  1F14                     	;# 
  1047  1F15                     	;# 
  1048  1F16                     	;# 
  1049  1F17                     	;# 
  1050  1F18                     	;# 
  1051  1F19                     	;# 
  1052  1F1A                     	;# 
  1053  1F1B                     	;# 
  1054  1F1C                     	;# 
  1055  1F1D                     	;# 
  1056  1F1E                     	;# 
  1057  1F1F                     	;# 
  1058  1F20                     	;# 
  1059  1F21                     	;# 
  1060  1F22                     	;# 
  1061  1F23                     	;# 
  1062  1F24                     	;# 
  1063  1F25                     	;# 
  1064  1F26                     	;# 
  1065  1F27                     	;# 
  1066  1F38                     	;# 
  1067  1F39                     	;# 
  1068  1F3A                     	;# 
  1069  1F3B                     	;# 
  1070  1F3C                     	;# 
  1071  1F3D                     	;# 
  1072  1F3E                     	;# 
  1073  1F3F                     	;# 
  1074  1F40                     	;# 
  1075  1F41                     	;# 
  1076  1F43                     	;# 
  1077  1F44                     	;# 
  1078  1F45                     	;# 
  1079  1F46                     	;# 
  1080  1F47                     	;# 
  1081  1F48                     	;# 
  1082  1F49                     	;# 
  1083  1F4A                     	;# 
  1084  1F4B                     	;# 
  1085  1F4C                     	;# 
  1086  1F4E                     	;# 
  1087  1F4F                     	;# 
  1088  1F50                     	;# 
  1089  1F51                     	;# 
  1090  1F52                     	;# 
  1091  1F53                     	;# 
  1092  1F54                     	;# 
  1093  1F55                     	;# 
  1094  1F56                     	;# 
  1095  1F57                     	;# 
  1096  1F65                     	;# 
  1097  1F68                     	;# 
  1098  1F69                     	;# 
  1099  1F6A                     	;# 
  1100  1F6B                     	;# 
  1101  1FE4                     	;# 
  1102  1FE5                     	;# 
  1103  1FE6                     	;# 
  1104  1FE7                     	;# 
  1105  1FE8                     	;# 
  1106  1FE9                     	;# 
  1107  1FEA                     	;# 
  1108  1FEB                     	;# 
  1109  1FED                     	;# 
  1110  1FEE                     	;# 
  1111  1FEF                     	;# 
  1112  0000                     	;# 
  1113  0001                     	;# 
  1114  0002                     	;# 
  1115  0003                     	;# 
  1116  0004                     	;# 
  1117  0005                     	;# 
  1118  0006                     	;# 
  1119  0007                     	;# 
  1120  0008                     	;# 
  1121  0009                     	;# 
  1122  000A                     	;# 
  1123  000B                     	;# 
  1124  000C                     	;# 
  1125  000D                     	;# 
  1126  000E                     	;# 
  1127  0010                     	;# 
  1128  0011                     	;# 
  1129  0012                     	;# 
  1130  0013                     	;# 
  1131  0016                     	;# 
  1132  0017                     	;# 
  1133  0018                     	;# 
  1134  001C                     	;# 
  1135  001C                     	;# 
  1136  001D                     	;# 
  1137  001D                     	;# 
  1138  001E                     	;# 
  1139  001F                     	;# 
  1140  008C                     	;# 
  1141  008C                     	;# 
  1142  008D                     	;# 
  1143  008E                     	;# 
  1144  008E                     	;# 
  1145  008F                     	;# 
  1146  0090                     	;# 
  1147  0090                     	;# 
  1148  0091                     	;# 
  1149  0093                     	;# 
  1150  0094                     	;# 
  1151  0095                     	;# 
  1152  0096                     	;# 
  1153  0097                     	;# 
  1154  0098                     	;# 
  1155  0099                     	;# 
  1156  009A                     	;# 
  1157  009B                     	;# 
  1158  009C                     	;# 
  1159  009D                     	;# 
  1160  009E                     	;# 
  1161  010C                     	;# 
  1162  010D                     	;# 
  1163  010E                     	;# 
  1164  010E                     	;# 
  1165  010F                     	;# 
  1166  0110                     	;# 
  1167  0110                     	;# 
  1168  0111                     	;# 
  1169  0112                     	;# 
  1170  0112                     	;# 
  1171  0113                     	;# 
  1172  0114                     	;# 
  1173  0114                     	;# 
  1174  0115                     	;# 
  1175  0116                     	;# 
  1176  0116                     	;# 
  1177  0117                     	;# 
  1178  0119                     	;# 
  1179  0119                     	;# 
  1180  0119                     	;# 
  1181  011A                     	;# 
  1182  011A                     	;# 
  1183  011A                     	;# 
  1184  011B                     	;# 
  1185  011B                     	;# 
  1186  011B                     	;# 
  1187  011B                     	;# 
  1188  011B                     	;# 
  1189  011C                     	;# 
  1190  011C                     	;# 
  1191  011C                     	;# 
  1192  011D                     	;# 
  1193  011D                     	;# 
  1194  011D                     	;# 
  1195  011E                     	;# 
  1196  011E                     	;# 
  1197  011E                     	;# 
  1198  011F                     	;# 
  1199  011F                     	;# 
  1200  011F                     	;# 
  1201  011F                     	;# 
  1202  011F                     	;# 
  1203  018C                     	;# 
  1204  018D                     	;# 
  1205  018E                     	;# 
  1206  018F                     	;# 
  1207  0190                     	;# 
  1208  0191                     	;# 
  1209  0192                     	;# 
  1210  0196                     	;# 
  1211  0197                     	;# 
  1212  0198                     	;# 
  1213  0199                     	;# 
  1214  019A                     	;# 
  1215  019B                     	;# 
  1216  019C                     	;# 
  1217  020C                     	;# 
  1218  020C                     	;# 
  1219  020D                     	;# 
  1220  020E                     	;# 
  1221  020F                     	;# 
  1222  020F                     	;# 
  1223  0210                     	;# 
  1224  0210                     	;# 
  1225  0211                     	;# 
  1226  0211                     	;# 
  1227  0212                     	;# 
  1228  0212                     	;# 
  1229  0213                     	;# 
  1230  0214                     	;# 
  1231  0215                     	;# 
  1232  0215                     	;# 
  1233  0216                     	;# 
  1234  0216                     	;# 
  1235  0217                     	;# 
  1236  0217                     	;# 
  1237  0218                     	;# 
  1238  0218                     	;# 
  1239  0219                     	;# 
  1240  021A                     	;# 
  1241  021B                     	;# 
  1242  021B                     	;# 
  1243  021C                     	;# 
  1244  021C                     	;# 
  1245  021D                     	;# 
  1246  021D                     	;# 
  1247  021E                     	;# 
  1248  021F                     	;# 
  1249  028C                     	;# 
  1250  028C                     	;# 
  1251  028D                     	;# 
  1252  028D                     	;# 
  1253  028E                     	;# 
  1254  028F                     	;# 
  1255  0290                     	;# 
  1256  0290                     	;# 
  1257  0291                     	;# 
  1258  0292                     	;# 
  1259  0292                     	;# 
  1260  0293                     	;# 
  1261  0293                     	;# 
  1262  0294                     	;# 
  1263  0295                     	;# 
  1264  0296                     	;# 
  1265  0296                     	;# 
  1266  0297                     	;# 
  1267  0298                     	;# 
  1268  0298                     	;# 
  1269  0299                     	;# 
  1270  0299                     	;# 
  1271  029A                     	;# 
  1272  029B                     	;# 
  1273  029C                     	;# 
  1274  029C                     	;# 
  1275  029D                     	;# 
  1276  030C                     	;# 
  1277  030C                     	;# 
  1278  030D                     	;# 
  1279  030E                     	;# 
  1280  030F                     	;# 
  1281  0310                     	;# 
  1282  0310                     	;# 
  1283  0311                     	;# 
  1284  0312                     	;# 
  1285  0313                     	;# 
  1286  0314                     	;# 
  1287  0314                     	;# 
  1288  0315                     	;# 
  1289  0316                     	;# 
  1290  0317                     	;# 
  1291  0318                     	;# 
  1292  0318                     	;# 
  1293  0319                     	;# 
  1294  031A                     	;# 
  1295  031B                     	;# 
  1296  031C                     	;# 
  1297  031C                     	;# 
  1298  031D                     	;# 
  1299  031E                     	;# 
  1300  031F                     	;# 
  1301  038C                     	;# 
  1302  038C                     	;# 
  1303  038D                     	;# 
  1304  038E                     	;# 
  1305  0390                     	;# 
  1306  0390                     	;# 
  1307  0391                     	;# 
  1308  0392                     	;# 
  1309  040C                     	;# 
  1310  040D                     	;# 
  1311  040E                     	;# 
  1312  040F                     	;# 
  1313  0410                     	;# 
  1314  0411                     	;# 
  1315  0416                     	;# 
  1316  0416                     	;# 
  1317  0417                     	;# 
  1318  0418                     	;# 
  1319  0418                     	;# 
  1320  0419                     	;# 
  1321  041A                     	;# 
  1322  041A                     	;# 
  1323  041B                     	;# 
  1324  041C                     	;# 
  1325  041C                     	;# 
  1326  041D                     	;# 
  1327  041E                     	;# 
  1328  041F                     	;# 
  1329  048C                     	;# 
  1330  048C                     	;# 
  1331  048D                     	;# 
  1332  048E                     	;# 
  1333  048F                     	;# 
  1334  048F                     	;# 
  1335  0490                     	;# 
  1336  0491                     	;# 
  1337  0492                     	;# 
  1338  0492                     	;# 
  1339  0493                     	;# 
  1340  0494                     	;# 
  1341  0495                     	;# 
  1342  0495                     	;# 
  1343  0496                     	;# 
  1344  0497                     	;# 
  1345  0498                     	;# 
  1346  0499                     	;# 
  1347  049A                     	;# 
  1348  049B                     	;# 
  1349  049C                     	;# 
  1350  049D                     	;# 
  1351  050C                     	;# 
  1352  050C                     	;# 
  1353  050D                     	;# 
  1354  050E                     	;# 
  1355  050F                     	;# 
  1356  050F                     	;# 
  1357  0510                     	;# 
  1358  0511                     	;# 
  1359  0512                     	;# 
  1360  0512                     	;# 
  1361  0513                     	;# 
  1362  0514                     	;# 
  1363  0515                     	;# 
  1364  0515                     	;# 
  1365  0516                     	;# 
  1366  0517                     	;# 
  1367  0518                     	;# 
  1368  0519                     	;# 
  1369  051A                     	;# 
  1370  051B                     	;# 
  1371  051C                     	;# 
  1372  051D                     	;# 
  1373  058C                     	;# 
  1374  058C                     	;# 
  1375  058D                     	;# 
  1376  058E                     	;# 
  1377  058F                     	;# 
  1378  058F                     	;# 
  1379  0590                     	;# 
  1380  0591                     	;# 
  1381  0592                     	;# 
  1382  0593                     	;# 
  1383  060C                     	;# 
  1384  060D                     	;# 
  1385  060E                     	;# 
  1386  060F                     	;# 
  1387  0610                     	;# 
  1388  0611                     	;# 
  1389  0612                     	;# 
  1390  0613                     	;# 
  1391  0614                     	;# 
  1392  0616                     	;# 
  1393  0617                     	;# 
  1394  0618                     	;# 
  1395  0619                     	;# 
  1396  061A                     	;# 
  1397  061B                     	;# 
  1398  061C                     	;# 
  1399  061D                     	;# 
  1400  061E                     	;# 
  1401  068C                     	;# 
  1402  068D                     	;# 
  1403  068E                     	;# 
  1404  068F                     	;# 
  1405  0690                     	;# 
  1406  0691                     	;# 
  1407  0692                     	;# 
  1408  0693                     	;# 
  1409  0694                     	;# 
  1410  070C                     	;# 
  1411  070D                     	;# 
  1412  070E                     	;# 
  1413  070F                     	;# 
  1414  0710                     	;# 
  1415  0711                     	;# 
  1416  0712                     	;# 
  1417  0713                     	;# 
  1418  0714                     	;# 
  1419  0716                     	;# 
  1420  0717                     	;# 
  1421  0718                     	;# 
  1422  0719                     	;# 
  1423  071A                     	;# 
  1424  071B                     	;# 
  1425  071C                     	;# 
  1426  071D                     	;# 
  1427  071E                     	;# 
  1428  0796                     	;# 
  1429  0797                     	;# 
  1430  0798                     	;# 
  1431  0799                     	;# 
  1432  079A                     	;# 
  1433  079B                     	;# 
  1434  080C                     	;# 
  1435  080D                     	;# 
  1436  080E                     	;# 
  1437  080F                     	;# 
  1438  0810                     	;# 
  1439  0811                     	;# 
  1440  0812                     	;# 
  1441  0813                     	;# 
  1442  0814                     	;# 
  1443  081A                     	;# 
  1444  081B                     	;# 
  1445  081C                     	;# 
  1446  081D                     	;# 
  1447  081E                     	;# 
  1448  081F                     	;# 
  1449  088C                     	;# 
  1450  088D                     	;# 
  1451  088E                     	;# 
  1452  088F                     	;# 
  1453  0890                     	;# 
  1454  0891                     	;# 
  1455  0892                     	;# 
  1456  0893                     	;# 
  1457  0895                     	;# 
  1458  0896                     	;# 
  1459  0897                     	;# 
  1460  0898                     	;# 
  1461  0899                     	;# 
  1462  089A                     	;# 
  1463  089B                     	;# 
  1464  090C                     	;# 
  1465  090E                     	;# 
  1466  090F                     	;# 
  1467  091F                     	;# 
  1468  098F                     	;# 
  1469  098F                     	;# 
  1470  0990                     	;# 
  1471  0991                     	;# 
  1472  0992                     	;# 
  1473  0993                     	;# 
  1474  0994                     	;# 
  1475  0995                     	;# 
  1476  0996                     	;# 
  1477  0997                     	;# 
  1478  1E0F                     	;# 
  1479  1E10                     	;# 
  1480  1E11                     	;# 
  1481  1E12                     	;# 
  1482  1E13                     	;# 
  1483  1E14                     	;# 
  1484  1E15                     	;# 
  1485  1E16                     	;# 
  1486  1E17                     	;# 
  1487  1E18                     	;# 
  1488  1E19                     	;# 
  1489  1E1A                     	;# 
  1490  1E1B                     	;# 
  1491  1E1C                     	;# 
  1492  1E1D                     	;# 
  1493  1E1E                     	;# 
  1494  1E1F                     	;# 
  1495  1E20                     	;# 
  1496  1E21                     	;# 
  1497  1E22                     	;# 
  1498  1E23                     	;# 
  1499  1E24                     	;# 
  1500  1E25                     	;# 
  1501  1E26                     	;# 
  1502  1E27                     	;# 
  1503  1E28                     	;# 
  1504  1E29                     	;# 
  1505  1E2A                     	;# 
  1506  1E2B                     	;# 
  1507  1E2C                     	;# 
  1508  1E2D                     	;# 
  1509  1E2E                     	;# 
  1510  1E2F                     	;# 
  1511  1E30                     	;# 
  1512  1E31                     	;# 
  1513  1E32                     	;# 
  1514  1E33                     	;# 
  1515  1E34                     	;# 
  1516  1E35                     	;# 
  1517  1E36                     	;# 
  1518  1E37                     	;# 
  1519  1E8F                     	;# 
  1520  1E90                     	;# 
  1521  1E91                     	;# 
  1522  1E92                     	;# 
  1523  1E93                     	;# 
  1524  1E94                     	;# 
  1525  1E95                     	;# 
  1526  1E96                     	;# 
  1527  1E97                     	;# 
  1528  1E9C                     	;# 
  1529  1E9D                     	;# 
  1530  1E9E                     	;# 
  1531  1EA1                     	;# 
  1532  1EA2                     	;# 
  1533  1EA3                     	;# 
  1534  1EA4                     	;# 
  1535  1EA5                     	;# 
  1536  1EA9                     	;# 
  1537  1EAA                     	;# 
  1538  1EAB                     	;# 
  1539  1EAC                     	;# 
  1540  1EB1                     	;# 
  1541  1EB2                     	;# 
  1542  1EB3                     	;# 
  1543  1EB8                     	;# 
  1544  1EB9                     	;# 
  1545  1EBA                     	;# 
  1546  1EBB                     	;# 
  1547  1EBC                     	;# 
  1548  1EBD                     	;# 
  1549  1EBE                     	;# 
  1550  1EC3                     	;# 
  1551  1EC5                     	;# 
  1552  1EC6                     	;# 
  1553  1EC7                     	;# 
  1554  1EC8                     	;# 
  1555  1EC9                     	;# 
  1556  1ECA                     	;# 
  1557  1ECB                     	;# 
  1558  1ECC                     	;# 
  1559  1F10                     	;# 
  1560  1F11                     	;# 
  1561  1F12                     	;# 
  1562  1F13                     	;# 
  1563  1F14                     	;# 
  1564  1F15                     	;# 
  1565  1F16                     	;# 
  1566  1F17                     	;# 
  1567  1F18                     	;# 
  1568  1F19                     	;# 
  1569  1F1A                     	;# 
  1570  1F1B                     	;# 
  1571  1F1C                     	;# 
  1572  1F1D                     	;# 
  1573  1F1E                     	;# 
  1574  1F1F                     	;# 
  1575  1F20                     	;# 
  1576  1F21                     	;# 
  1577  1F22                     	;# 
  1578  1F23                     	;# 
  1579  1F24                     	;# 
  1580  1F25                     	;# 
  1581  1F26                     	;# 
  1582  1F27                     	;# 
  1583  1F38                     	;# 
  1584  1F39                     	;# 
  1585  1F3A                     	;# 
  1586  1F3B                     	;# 
  1587  1F3C                     	;# 
  1588  1F3D                     	;# 
  1589  1F3E                     	;# 
  1590  1F3F                     	;# 
  1591  1F40                     	;# 
  1592  1F41                     	;# 
  1593  1F43                     	;# 
  1594  1F44                     	;# 
  1595  1F45                     	;# 
  1596  1F46                     	;# 
  1597  1F47                     	;# 
  1598  1F48                     	;# 
  1599  1F49                     	;# 
  1600  1F4A                     	;# 
  1601  1F4B                     	;# 
  1602  1F4C                     	;# 
  1603  1F4E                     	;# 
  1604  1F4F                     	;# 
  1605  1F50                     	;# 
  1606  1F51                     	;# 
  1607  1F52                     	;# 
  1608  1F53                     	;# 
  1609  1F54                     	;# 
  1610  1F55                     	;# 
  1611  1F56                     	;# 
  1612  1F57                     	;# 
  1613  1F65                     	;# 
  1614  1F68                     	;# 
  1615  1F69                     	;# 
  1616  1F6A                     	;# 
  1617  1F6B                     	;# 
  1618  1FE4                     	;# 
  1619  1FE5                     	;# 
  1620  1FE6                     	;# 
  1621  1FE7                     	;# 
  1622  1FE8                     	;# 
  1623  1FE9                     	;# 
  1624  1FEA                     	;# 
  1625  1FEB                     	;# 
  1626  1FED                     	;# 
  1627  1FEE                     	;# 
  1628  1FEF                     	;# 
  1629  0000                     	;# 
  1630  0001                     	;# 
  1631  0002                     	;# 
  1632  0003                     	;# 
  1633  0004                     	;# 
  1634  0005                     	;# 
  1635  0006                     	;# 
  1636  0007                     	;# 
  1637  0008                     	;# 
  1638  0009                     	;# 
  1639  000A                     	;# 
  1640  000B                     	;# 
  1641  000C                     	;# 
  1642  000D                     	;# 
  1643  000E                     	;# 
  1644  0010                     	;# 
  1645  0011                     	;# 
  1646  0012                     	;# 
  1647  0013                     	;# 
  1648  0016                     	;# 
  1649  0017                     	;# 
  1650  0018                     	;# 
  1651  001C                     	;# 
  1652  001C                     	;# 
  1653  001D                     	;# 
  1654  001D                     	;# 
  1655  001E                     	;# 
  1656  001F                     	;# 
  1657  008C                     	;# 
  1658  008C                     	;# 
  1659  008D                     	;# 
  1660  008E                     	;# 
  1661  008E                     	;# 
  1662  008F                     	;# 
  1663  0090                     	;# 
  1664  0090                     	;# 
  1665  0091                     	;# 
  1666  0093                     	;# 
  1667  0094                     	;# 
  1668  0095                     	;# 
  1669  0096                     	;# 
  1670  0097                     	;# 
  1671  0098                     	;# 
  1672  0099                     	;# 
  1673  009A                     	;# 
  1674  009B                     	;# 
  1675  009C                     	;# 
  1676  009D                     	;# 
  1677  009E                     	;# 
  1678  010C                     	;# 
  1679  010D                     	;# 
  1680  010E                     	;# 
  1681  010E                     	;# 
  1682  010F                     	;# 
  1683  0110                     	;# 
  1684  0110                     	;# 
  1685  0111                     	;# 
  1686  0112                     	;# 
  1687  0112                     	;# 
  1688  0113                     	;# 
  1689  0114                     	;# 
  1690  0114                     	;# 
  1691  0115                     	;# 
  1692  0116                     	;# 
  1693  0116                     	;# 
  1694  0117                     	;# 
  1695  0119                     	;# 
  1696  0119                     	;# 
  1697  0119                     	;# 
  1698  011A                     	;# 
  1699  011A                     	;# 
  1700  011A                     	;# 
  1701  011B                     	;# 
  1702  011B                     	;# 
  1703  011B                     	;# 
  1704  011B                     	;# 
  1705  011B                     	;# 
  1706  011C                     	;# 
  1707  011C                     	;# 
  1708  011C                     	;# 
  1709  011D                     	;# 
  1710  011D                     	;# 
  1711  011D                     	;# 
  1712  011E                     	;# 
  1713  011E                     	;# 
  1714  011E                     	;# 
  1715  011F                     	;# 
  1716  011F                     	;# 
  1717  011F                     	;# 
  1718  011F                     	;# 
  1719  011F                     	;# 
  1720  018C                     	;# 
  1721  018D                     	;# 
  1722  018E                     	;# 
  1723  018F                     	;# 
  1724  0190                     	;# 
  1725  0191                     	;# 
  1726  0192                     	;# 
  1727  0196                     	;# 
  1728  0197                     	;# 
  1729  0198                     	;# 
  1730  0199                     	;# 
  1731  019A                     	;# 
  1732  019B                     	;# 
  1733  019C                     	;# 
  1734  020C                     	;# 
  1735  020C                     	;# 
  1736  020D                     	;# 
  1737  020E                     	;# 
  1738  020F                     	;# 
  1739  020F                     	;# 
  1740  0210                     	;# 
  1741  0210                     	;# 
  1742  0211                     	;# 
  1743  0211                     	;# 
  1744  0212                     	;# 
  1745  0212                     	;# 
  1746  0213                     	;# 
  1747  0214                     	;# 
  1748  0215                     	;# 
  1749  0215                     	;# 
  1750  0216                     	;# 
  1751  0216                     	;# 
  1752  0217                     	;# 
  1753  0217                     	;# 
  1754  0218                     	;# 
  1755  0218                     	;# 
  1756  0219                     	;# 
  1757  021A                     	;# 
  1758  021B                     	;# 
  1759  021B                     	;# 
  1760  021C                     	;# 
  1761  021C                     	;# 
  1762  021D                     	;# 
  1763  021D                     	;# 
  1764  021E                     	;# 
  1765  021F                     	;# 
  1766  028C                     	;# 
  1767  028C                     	;# 
  1768  028D                     	;# 
  1769  028D                     	;# 
  1770  028E                     	;# 
  1771  028F                     	;# 
  1772  0290                     	;# 
  1773  0290                     	;# 
  1774  0291                     	;# 
  1775  0292                     	;# 
  1776  0292                     	;# 
  1777  0293                     	;# 
  1778  0293                     	;# 
  1779  0294                     	;# 
  1780  0295                     	;# 
  1781  0296                     	;# 
  1782  0296                     	;# 
  1783  0297                     	;# 
  1784  0298                     	;# 
  1785  0298                     	;# 
  1786  0299                     	;# 
  1787  0299                     	;# 
  1788  029A                     	;# 
  1789  029B                     	;# 
  1790  029C                     	;# 
  1791  029C                     	;# 
  1792  029D                     	;# 
  1793  030C                     	;# 
  1794  030C                     	;# 
  1795  030D                     	;# 
  1796  030E                     	;# 
  1797  030F                     	;# 
  1798  0310                     	;# 
  1799  0310                     	;# 
  1800  0311                     	;# 
  1801  0312                     	;# 
  1802  0313                     	;# 
  1803  0314                     	;# 
  1804  0314                     	;# 
  1805  0315                     	;# 
  1806  0316                     	;# 
  1807  0317                     	;# 
  1808  0318                     	;# 
  1809  0318                     	;# 
  1810  0319                     	;# 
  1811  031A                     	;# 
  1812  031B                     	;# 
  1813  031C                     	;# 
  1814  031C                     	;# 
  1815  031D                     	;# 
  1816  031E                     	;# 
  1817  031F                     	;# 
  1818  038C                     	;# 
  1819  038C                     	;# 
  1820  038D                     	;# 
  1821  038E                     	;# 
  1822  0390                     	;# 
  1823  0390                     	;# 
  1824  0391                     	;# 
  1825  0392                     	;# 
  1826  040C                     	;# 
  1827  040D                     	;# 
  1828  040E                     	;# 
  1829  040F                     	;# 
  1830  0410                     	;# 
  1831  0411                     	;# 
  1832  0416                     	;# 
  1833  0416                     	;# 
  1834  0417                     	;# 
  1835  0418                     	;# 
  1836  0418                     	;# 
  1837  0419                     	;# 
  1838  041A                     	;# 
  1839  041A                     	;# 
  1840  041B                     	;# 
  1841  041C                     	;# 
  1842  041C                     	;# 
  1843  041D                     	;# 
  1844  041E                     	;# 
  1845  041F                     	;# 
  1846  048C                     	;# 
  1847  048C                     	;# 
  1848  048D                     	;# 
  1849  048E                     	;# 
  1850  048F                     	;# 
  1851  048F                     	;# 
  1852  0490                     	;# 
  1853  0491                     	;# 
  1854  0492                     	;# 
  1855  0492                     	;# 
  1856  0493                     	;# 
  1857  0494                     	;# 
  1858  0495                     	;# 
  1859  0495                     	;# 
  1860  0496                     	;# 
  1861  0497                     	;# 
  1862  0498                     	;# 
  1863  0499                     	;# 
  1864  049A                     	;# 
  1865  049B                     	;# 
  1866  049C                     	;# 
  1867  049D                     	;# 
  1868  050C                     	;# 
  1869  050C                     	;# 
  1870  050D                     	;# 
  1871  050E                     	;# 
  1872  050F                     	;# 
  1873  050F                     	;# 
  1874  0510                     	;# 
  1875  0511                     	;# 
  1876  0512                     	;# 
  1877  0512                     	;# 
  1878  0513                     	;# 
  1879  0514                     	;# 
  1880  0515                     	;# 
  1881  0515                     	;# 
  1882  0516                     	;# 
  1883  0517                     	;# 
  1884  0518                     	;# 
  1885  0519                     	;# 
  1886  051A                     	;# 
  1887  051B                     	;# 
  1888  051C                     	;# 
  1889  051D                     	;# 
  1890  058C                     	;# 
  1891  058C                     	;# 
  1892  058D                     	;# 
  1893  058E                     	;# 
  1894  058F                     	;# 
  1895  058F                     	;# 
  1896  0590                     	;# 
  1897  0591                     	;# 
  1898  0592                     	;# 
  1899  0593                     	;# 
  1900  060C                     	;# 
  1901  060D                     	;# 
  1902  060E                     	;# 
  1903  060F                     	;# 
  1904  0610                     	;# 
  1905  0611                     	;# 
  1906  0612                     	;# 
  1907  0613                     	;# 
  1908  0614                     	;# 
  1909  0616                     	;# 
  1910  0617                     	;# 
  1911  0618                     	;# 
  1912  0619                     	;# 
  1913  061A                     	;# 
  1914  061B                     	;# 
  1915  061C                     	;# 
  1916  061D                     	;# 
  1917  061E                     	;# 
  1918  068C                     	;# 
  1919  068D                     	;# 
  1920  068E                     	;# 
  1921  068F                     	;# 
  1922  0690                     	;# 
  1923  0691                     	;# 
  1924  0692                     	;# 
  1925  0693                     	;# 
  1926  0694                     	;# 
  1927  070C                     	;# 
  1928  070D                     	;# 
  1929  070E                     	;# 
  1930  070F                     	;# 
  1931  0710                     	;# 
  1932  0711                     	;# 
  1933  0712                     	;# 
  1934  0713                     	;# 
  1935  0714                     	;# 
  1936  0716                     	;# 
  1937  0717                     	;# 
  1938  0718                     	;# 
  1939  0719                     	;# 
  1940  071A                     	;# 
  1941  071B                     	;# 
  1942  071C                     	;# 
  1943  071D                     	;# 
  1944  071E                     	;# 
  1945  0796                     	;# 
  1946  0797                     	;# 
  1947  0798                     	;# 
  1948  0799                     	;# 
  1949  079A                     	;# 
  1950  079B                     	;# 
  1951  080C                     	;# 
  1952  080D                     	;# 
  1953  080E                     	;# 
  1954  080F                     	;# 
  1955  0810                     	;# 
  1956  0811                     	;# 
  1957  0812                     	;# 
  1958  0813                     	;# 
  1959  0814                     	;# 
  1960  081A                     	;# 
  1961  081B                     	;# 
  1962  081C                     	;# 
  1963  081D                     	;# 
  1964  081E                     	;# 
  1965  081F                     	;# 
  1966  088C                     	;# 
  1967  088D                     	;# 
  1968  088E                     	;# 
  1969  088F                     	;# 
  1970  0890                     	;# 
  1971  0891                     	;# 
  1972  0892                     	;# 
  1973  0893                     	;# 
  1974  0895                     	;# 
  1975  0896                     	;# 
  1976  0897                     	;# 
  1977  0898                     	;# 
  1978  0899                     	;# 
  1979  089A                     	;# 
  1980  089B                     	;# 
  1981  090C                     	;# 
  1982  090E                     	;# 
  1983  090F                     	;# 
  1984  091F                     	;# 
  1985  098F                     	;# 
  1986  098F                     	;# 
  1987  0990                     	;# 
  1988  0991                     	;# 
  1989  0992                     	;# 
  1990  0993                     	;# 
  1991  0994                     	;# 
  1992  0995                     	;# 
  1993  0996                     	;# 
  1994  0997                     	;# 
  1995  1E0F                     	;# 
  1996  1E10                     	;# 
  1997  1E11                     	;# 
  1998  1E12                     	;# 
  1999  1E13                     	;# 
  2000  1E14                     	;# 
  2001  1E15                     	;# 
  2002  1E16                     	;# 
  2003  1E17                     	;# 
  2004  1E18                     	;# 
  2005  1E19                     	;# 
  2006  1E1A                     	;# 
  2007  1E1B                     	;# 
  2008  1E1C                     	;# 
  2009  1E1D                     	;# 
  2010  1E1E                     	;# 
  2011  1E1F                     	;# 
  2012  1E20                     	;# 
  2013  1E21                     	;# 
  2014  1E22                     	;# 
  2015  1E23                     	;# 
  2016  1E24                     	;# 
  2017  1E25                     	;# 
  2018  1E26                     	;# 
  2019  1E27                     	;# 
  2020  1E28                     	;# 
  2021  1E29                     	;# 
  2022  1E2A                     	;# 
  2023  1E2B                     	;# 
  2024  1E2C                     	;# 
  2025  1E2D                     	;# 
  2026  1E2E                     	;# 
  2027  1E2F                     	;# 
  2028  1E30                     	;# 
  2029  1E31                     	;# 
  2030  1E32                     	;# 
  2031  1E33                     	;# 
  2032  1E34                     	;# 
  2033  1E35                     	;# 
  2034  1E36                     	;# 
  2035  1E37                     	;# 
  2036  1E8F                     	;# 
  2037  1E90                     	;# 
  2038  1E91                     	;# 
  2039  1E92                     	;# 
  2040  1E93                     	;# 
  2041  1E94                     	;# 
  2042  1E95                     	;# 
  2043  1E96                     	;# 
  2044  1E97                     	;# 
  2045  1E9C                     	;# 
  2046  1E9D                     	;# 
  2047  1E9E                     	;# 
  2048  1EA1                     	;# 
  2049  1EA2                     	;# 
  2050  1EA3                     	;# 
  2051  1EA4                     	;# 
  2052  1EA5                     	;# 
  2053  1EA9                     	;# 
  2054  1EAA                     	;# 
  2055  1EAB                     	;# 
  2056  1EAC                     	;# 
  2057  1EB1                     	;# 
  2058  1EB2                     	;# 
  2059  1EB3                     	;# 
  2060  1EB8                     	;# 
  2061  1EB9                     	;# 
  2062  1EBA                     	;# 
  2063  1EBB                     	;# 
  2064  1EBC                     	;# 
  2065  1EBD                     	;# 
  2066  1EBE                     	;# 
  2067  1EC3                     	;# 
  2068  1EC5                     	;# 
  2069  1EC6                     	;# 
  2070  1EC7                     	;# 
  2071  1EC8                     	;# 
  2072  1EC9                     	;# 
  2073  1ECA                     	;# 
  2074  1ECB                     	;# 
  2075  1ECC                     	;# 
  2076  1F10                     	;# 
  2077  1F11                     	;# 
  2078  1F12                     	;# 
  2079  1F13                     	;# 
  2080  1F14                     	;# 
  2081  1F15                     	;# 
  2082  1F16                     	;# 
  2083  1F17                     	;# 
  2084  1F18                     	;# 
  2085  1F19                     	;# 
  2086  1F1A                     	;# 
  2087  1F1B                     	;# 
  2088  1F1C                     	;# 
  2089  1F1D                     	;# 
  2090  1F1E                     	;# 
  2091  1F1F                     	;# 
  2092  1F20                     	;# 
  2093  1F21                     	;# 
  2094  1F22                     	;# 
  2095  1F23                     	;# 
  2096  1F24                     	;# 
  2097  1F25                     	;# 
  2098  1F26                     	;# 
  2099  1F27                     	;# 
  2100  1F38                     	;# 
  2101  1F39                     	;# 
  2102  1F3A                     	;# 
  2103  1F3B                     	;# 
  2104  1F3C                     	;# 
  2105  1F3D                     	;# 
  2106  1F3E                     	;# 
  2107  1F3F                     	;# 
  2108  1F40                     	;# 
  2109  1F41                     	;# 
  2110  1F43                     	;# 
  2111  1F44                     	;# 
  2112  1F45                     	;# 
  2113  1F46                     	;# 
  2114  1F47                     	;# 
  2115  1F48                     	;# 
  2116  1F49                     	;# 
  2117  1F4A                     	;# 
  2118  1F4B                     	;# 
  2119  1F4C                     	;# 
  2120  1F4E                     	;# 
  2121  1F4F                     	;# 
  2122  1F50                     	;# 
  2123  1F51                     	;# 
  2124  1F52                     	;# 
  2125  1F53                     	;# 
  2126  1F54                     	;# 
  2127  1F55                     	;# 
  2128  1F56                     	;# 
  2129  1F57                     	;# 
  2130  1F65                     	;# 
  2131  1F68                     	;# 
  2132  1F69                     	;# 
  2133  1F6A                     	;# 
  2134  1F6B                     	;# 
  2135  1FE4                     	;# 
  2136  1FE5                     	;# 
  2137  1FE6                     	;# 
  2138  1FE7                     	;# 
  2139  1FE8                     	;# 
  2140  1FE9                     	;# 
  2141  1FEA                     	;# 
  2142  1FEB                     	;# 
  2143  1FED                     	;# 
  2144  1FEE                     	;# 
  2145  1FEF                     	;# 
  2146  0000                     	;# 
  2147  0001                     	;# 
  2148  0002                     	;# 
  2149  0003                     	;# 
  2150  0004                     	;# 
  2151  0005                     	;# 
  2152  0006                     	;# 
  2153  0007                     	;# 
  2154  0008                     	;# 
  2155  0009                     	;# 
  2156  000A                     	;# 
  2157  000B                     	;# 
  2158  000C                     	;# 
  2159  000D                     	;# 
  2160  000E                     	;# 
  2161  0010                     	;# 
  2162  0011                     	;# 
  2163  0012                     	;# 
  2164  0013                     	;# 
  2165  0016                     	;# 
  2166  0017                     	;# 
  2167  0018                     	;# 
  2168  001C                     	;# 
  2169  001C                     	;# 
  2170  001D                     	;# 
  2171  001D                     	;# 
  2172  001E                     	;# 
  2173  001F                     	;# 
  2174  008C                     	;# 
  2175  008C                     	;# 
  2176  008D                     	;# 
  2177  008E                     	;# 
  2178  008E                     	;# 
  2179  008F                     	;# 
  2180  0090                     	;# 
  2181  0090                     	;# 
  2182  0091                     	;# 
  2183  0093                     	;# 
  2184  0094                     	;# 
  2185  0095                     	;# 
  2186  0096                     	;# 
  2187  0097                     	;# 
  2188  0098                     	;# 
  2189  0099                     	;# 
  2190  009A                     	;# 
  2191  009B                     	;# 
  2192  009C                     	;# 
  2193  009D                     	;# 
  2194  009E                     	;# 
  2195  010C                     	;# 
  2196  010D                     	;# 
  2197  010E                     	;# 
  2198  010E                     	;# 
  2199  010F                     	;# 
  2200  0110                     	;# 
  2201  0110                     	;# 
  2202  0111                     	;# 
  2203  0112                     	;# 
  2204  0112                     	;# 
  2205  0113                     	;# 
  2206  0114                     	;# 
  2207  0114                     	;# 
  2208  0115                     	;# 
  2209  0116                     	;# 
  2210  0116                     	;# 
  2211  0117                     	;# 
  2212  0119                     	;# 
  2213  0119                     	;# 
  2214  0119                     	;# 
  2215  011A                     	;# 
  2216  011A                     	;# 
  2217  011A                     	;# 
  2218  011B                     	;# 
  2219  011B                     	;# 
  2220  011B                     	;# 
  2221  011B                     	;# 
  2222  011B                     	;# 
  2223  011C                     	;# 
  2224  011C                     	;# 
  2225  011C                     	;# 
  2226  011D                     	;# 
  2227  011D                     	;# 
  2228  011D                     	;# 
  2229  011E                     	;# 
  2230  011E                     	;# 
  2231  011E                     	;# 
  2232  011F                     	;# 
  2233  011F                     	;# 
  2234  011F                     	;# 
  2235  011F                     	;# 
  2236  011F                     	;# 
  2237  018C                     	;# 
  2238  018D                     	;# 
  2239  018E                     	;# 
  2240  018F                     	;# 
  2241  0190                     	;# 
  2242  0191                     	;# 
  2243  0192                     	;# 
  2244  0196                     	;# 
  2245  0197                     	;# 
  2246  0198                     	;# 
  2247  0199                     	;# 
  2248  019A                     	;# 
  2249  019B                     	;# 
  2250  019C                     	;# 
  2251  020C                     	;# 
  2252  020C                     	;# 
  2253  020D                     	;# 
  2254  020E                     	;# 
  2255  020F                     	;# 
  2256  020F                     	;# 
  2257  0210                     	;# 
  2258  0210                     	;# 
  2259  0211                     	;# 
  2260  0211                     	;# 
  2261  0212                     	;# 
  2262  0212                     	;# 
  2263  0213                     	;# 
  2264  0214                     	;# 
  2265  0215                     	;# 
  2266  0215                     	;# 
  2267  0216                     	;# 
  2268  0216                     	;# 
  2269  0217                     	;# 
  2270  0217                     	;# 
  2271  0218                     	;# 
  2272  0218                     	;# 
  2273  0219                     	;# 
  2274  021A                     	;# 
  2275  021B                     	;# 
  2276  021B                     	;# 
  2277  021C                     	;# 
  2278  021C                     	;# 
  2279  021D                     	;# 
  2280  021D                     	;# 
  2281  021E                     	;# 
  2282  021F                     	;# 
  2283  028C                     	;# 
  2284  028C                     	;# 
  2285  028D                     	;# 
  2286  028D                     	;# 
  2287  028E                     	;# 
  2288  028F                     	;# 
  2289  0290                     	;# 
  2290  0290                     	;# 
  2291  0291                     	;# 
  2292  0292                     	;# 
  2293  0292                     	;# 
  2294  0293                     	;# 
  2295  0293                     	;# 
  2296  0294                     	;# 
  2297  0295                     	;# 
  2298  0296                     	;# 
  2299  0296                     	;# 
  2300  0297                     	;# 
  2301  0298                     	;# 
  2302  0298                     	;# 
  2303  0299                     	;# 
  2304  0299                     	;# 
  2305  029A                     	;# 
  2306  029B                     	;# 
  2307  029C                     	;# 
  2308  029C                     	;# 
  2309  029D                     	;# 
  2310  030C                     	;# 
  2311  030C                     	;# 
  2312  030D                     	;# 
  2313  030E                     	;# 
  2314  030F                     	;# 
  2315  0310                     	;# 
  2316  0310                     	;# 
  2317  0311                     	;# 
  2318  0312                     	;# 
  2319  0313                     	;# 
  2320  0314                     	;# 
  2321  0314                     	;# 
  2322  0315                     	;# 
  2323  0316                     	;# 
  2324  0317                     	;# 
  2325  0318                     	;# 
  2326  0318                     	;# 
  2327  0319                     	;# 
  2328  031A                     	;# 
  2329  031B                     	;# 
  2330  031C                     	;# 
  2331  031C                     	;# 
  2332  031D                     	;# 
  2333  031E                     	;# 
  2334  031F                     	;# 
  2335  038C                     	;# 
  2336  038C                     	;# 
  2337  038D                     	;# 
  2338  038E                     	;# 
  2339  0390                     	;# 
  2340  0390                     	;# 
  2341  0391                     	;# 
  2342  0392                     	;# 
  2343  040C                     	;# 
  2344  040D                     	;# 
  2345  040E                     	;# 
  2346  040F                     	;# 
  2347  0410                     	;# 
  2348  0411                     	;# 
  2349  0416                     	;# 
  2350  0416                     	;# 
  2351  0417                     	;# 
  2352  0418                     	;# 
  2353  0418                     	;# 
  2354  0419                     	;# 
  2355  041A                     	;# 
  2356  041A                     	;# 
  2357  041B                     	;# 
  2358  041C                     	;# 
  2359  041C                     	;# 
  2360  041D                     	;# 
  2361  041E                     	;# 
  2362  041F                     	;# 
  2363  048C                     	;# 
  2364  048C                     	;# 
  2365  048D                     	;# 
  2366  048E                     	;# 
  2367  048F                     	;# 
  2368  048F                     	;# 
  2369  0490                     	;# 
  2370  0491                     	;# 
  2371  0492                     	;# 
  2372  0492                     	;# 
  2373  0493                     	;# 
  2374  0494                     	;# 
  2375  0495                     	;# 
  2376  0495                     	;# 
  2377  0496                     	;# 
  2378  0497                     	;# 
  2379  0498                     	;# 
  2380  0499                     	;# 
  2381  049A                     	;# 
  2382  049B                     	;# 
  2383  049C                     	;# 
  2384  049D                     	;# 
  2385  050C                     	;# 
  2386  050C                     	;# 
  2387  050D                     	;# 
  2388  050E                     	;# 
  2389  050F                     	;# 
  2390  050F                     	;# 
  2391  0510                     	;# 
  2392  0511                     	;# 
  2393  0512                     	;# 
  2394  0512                     	;# 
  2395  0513                     	;# 
  2396  0514                     	;# 
  2397  0515                     	;# 
  2398  0515                     	;# 
  2399  0516                     	;# 
  2400  0517                     	;# 
  2401  0518                     	;# 
  2402  0519                     	;# 
  2403  051A                     	;# 
  2404  051B                     	;# 
  2405  051C                     	;# 
  2406  051D                     	;# 
  2407  058C                     	;# 
  2408  058C                     	;# 
  2409  058D                     	;# 
  2410  058E                     	;# 
  2411  058F                     	;# 
  2412  058F                     	;# 
  2413  0590                     	;# 
  2414  0591                     	;# 
  2415  0592                     	;# 
  2416  0593                     	;# 
  2417  060C                     	;# 
  2418  060D                     	;# 
  2419  060E                     	;# 
  2420  060F                     	;# 
  2421  0610                     	;# 
  2422  0611                     	;# 
  2423  0612                     	;# 
  2424  0613                     	;# 
  2425  0614                     	;# 
  2426  0616                     	;# 
  2427  0617                     	;# 
  2428  0618                     	;# 
  2429  0619                     	;# 
  2430  061A                     	;# 
  2431  061B                     	;# 
  2432  061C                     	;# 
  2433  061D                     	;# 
  2434  061E                     	;# 
  2435  068C                     	;# 
  2436  068D                     	;# 
  2437  068E                     	;# 
  2438  068F                     	;# 
  2439  0690                     	;# 
  2440  0691                     	;# 
  2441  0692                     	;# 
  2442  0693                     	;# 
  2443  0694                     	;# 
  2444  070C                     	;# 
  2445  070D                     	;# 
  2446  070E                     	;# 
  2447  070F                     	;# 
  2448  0710                     	;# 
  2449  0711                     	;# 
  2450  0712                     	;# 
  2451  0713                     	;# 
  2452  0714                     	;# 
  2453  0716                     	;# 
  2454  0717                     	;# 
  2455  0718                     	;# 
  2456  0719                     	;# 
  2457  071A                     	;# 
  2458  071B                     	;# 
  2459  071C                     	;# 
  2460  071D                     	;# 
  2461  071E                     	;# 
  2462  0796                     	;# 
  2463  0797                     	;# 
  2464  0798                     	;# 
  2465  0799                     	;# 
  2466  079A                     	;# 
  2467  079B                     	;# 
  2468  080C                     	;# 
  2469  080D                     	;# 
  2470  080E                     	;# 
  2471  080F                     	;# 
  2472  0810                     	;# 
  2473  0811                     	;# 
  2474  0812                     	;# 
  2475  0813                     	;# 
  2476  0814                     	;# 
  2477  081A                     	;# 
  2478  081B                     	;# 
  2479  081C                     	;# 
  2480  081D                     	;# 
  2481  081E                     	;# 
  2482  081F                     	;# 
  2483  088C                     	;# 
  2484  088D                     	;# 
  2485  088E                     	;# 
  2486  088F                     	;# 
  2487  0890                     	;# 
  2488  0891                     	;# 
  2489  0892                     	;# 
  2490  0893                     	;# 
  2491  0895                     	;# 
  2492  0896                     	;# 
  2493  0897                     	;# 
  2494  0898                     	;# 
  2495  0899                     	;# 
  2496  089A                     	;# 
  2497  089B                     	;# 
  2498  090C                     	;# 
  2499  090E                     	;# 
  2500  090F                     	;# 
  2501  091F                     	;# 
  2502  098F                     	;# 
  2503  098F                     	;# 
  2504  0990                     	;# 
  2505  0991                     	;# 
  2506  0992                     	;# 
  2507  0993                     	;# 
  2508  0994                     	;# 
  2509  0995                     	;# 
  2510  0996                     	;# 
  2511  0997                     	;# 
  2512  1E0F                     	;# 
  2513  1E10                     	;# 
  2514  1E11                     	;# 
  2515  1E12                     	;# 
  2516  1E13                     	;# 
  2517  1E14                     	;# 
  2518  1E15                     	;# 
  2519  1E16                     	;# 
  2520  1E17                     	;# 
  2521  1E18                     	;# 
  2522  1E19                     	;# 
  2523  1E1A                     	;# 
  2524  1E1B                     	;# 
  2525  1E1C                     	;# 
  2526  1E1D                     	;# 
  2527  1E1E                     	;# 
  2528  1E1F                     	;# 
  2529  1E20                     	;# 
  2530  1E21                     	;# 
  2531  1E22                     	;# 
  2532  1E23                     	;# 
  2533  1E24                     	;# 
  2534  1E25                     	;# 
  2535  1E26                     	;# 
  2536  1E27                     	;# 
  2537  1E28                     	;# 
  2538  1E29                     	;# 
  2539  1E2A                     	;# 
  2540  1E2B                     	;# 
  2541  1E2C                     	;# 
  2542  1E2D                     	;# 
  2543  1E2E                     	;# 
  2544  1E2F                     	;# 
  2545  1E30                     	;# 
  2546  1E31                     	;# 
  2547  1E32                     	;# 
  2548  1E33                     	;# 
  2549  1E34                     	;# 
  2550  1E35                     	;# 
  2551  1E36                     	;# 
  2552  1E37                     	;# 
  2553  1E8F                     	;# 
  2554  1E90                     	;# 
  2555  1E91                     	;# 
  2556  1E92                     	;# 
  2557  1E93                     	;# 
  2558  1E94                     	;# 
  2559  1E95                     	;# 
  2560  1E96                     	;# 
  2561  1E97                     	;# 
  2562  1E9C                     	;# 
  2563  1E9D                     	;# 
  2564  1E9E                     	;# 
  2565  1EA1                     	;# 
  2566  1EA2                     	;# 
  2567  1EA3                     	;# 
  2568  1EA4                     	;# 
  2569  1EA5                     	;# 
  2570  1EA9                     	;# 
  2571  1EAA                     	;# 
  2572  1EAB                     	;# 
  2573  1EAC                     	;# 
  2574  1EB1                     	;# 
  2575  1EB2                     	;# 
  2576  1EB3                     	;# 
  2577  1EB8                     	;# 
  2578  1EB9                     	;# 
  2579  1EBA                     	;# 
  2580  1EBB                     	;# 
  2581  1EBC                     	;# 
  2582  1EBD                     	;# 
  2583  1EBE                     	;# 
  2584  1EC3                     	;# 
  2585  1EC5                     	;# 
  2586  1EC6                     	;# 
  2587  1EC7                     	;# 
  2588  1EC8                     	;# 
  2589  1EC9                     	;# 
  2590  1ECA                     	;# 
  2591  1ECB                     	;# 
  2592  1ECC                     	;# 
  2593  1F10                     	;# 
  2594  1F11                     	;# 
  2595  1F12                     	;# 
  2596  1F13                     	;# 
  2597  1F14                     	;# 
  2598  1F15                     	;# 
  2599  1F16                     	;# 
  2600  1F17                     	;# 
  2601  1F18                     	;# 
  2602  1F19                     	;# 
  2603  1F1A                     	;# 
  2604  1F1B                     	;# 
  2605  1F1C                     	;# 
  2606  1F1D                     	;# 
  2607  1F1E                     	;# 
  2608  1F1F                     	;# 
  2609  1F20                     	;# 
  2610  1F21                     	;# 
  2611  1F22                     	;# 
  2612  1F23                     	;# 
  2613  1F24                     	;# 
  2614  1F25                     	;# 
  2615  1F26                     	;# 
  2616  1F27                     	;# 
  2617  1F38                     	;# 
  2618  1F39                     	;# 
  2619  1F3A                     	;# 
  2620  1F3B                     	;# 
  2621  1F3C                     	;# 
  2622  1F3D                     	;# 
  2623  1F3E                     	;# 
  2624  1F3F                     	;# 
  2625  1F40                     	;# 
  2626  1F41                     	;# 
  2627  1F43                     	;# 
  2628  1F44                     	;# 
  2629  1F45                     	;# 
  2630  1F46                     	;# 
  2631  1F47                     	;# 
  2632  1F48                     	;# 
  2633  1F49                     	;# 
  2634  1F4A                     	;# 
  2635  1F4B                     	;# 
  2636  1F4C                     	;# 
  2637  1F4E                     	;# 
  2638  1F4F                     	;# 
  2639  1F50                     	;# 
  2640  1F51                     	;# 
  2641  1F52                     	;# 
  2642  1F53                     	;# 
  2643  1F54                     	;# 
  2644  1F55                     	;# 
  2645  1F56                     	;# 
  2646  1F57                     	;# 
  2647  1F65                     	;# 
  2648  1F68                     	;# 
  2649  1F69                     	;# 
  2650  1F6A                     	;# 
  2651  1F6B                     	;# 
  2652  1FE4                     	;# 
  2653  1FE5                     	;# 
  2654  1FE6                     	;# 
  2655  1FE7                     	;# 
  2656  1FE8                     	;# 
  2657  1FE9                     	;# 
  2658  1FEA                     	;# 
  2659  1FEB                     	;# 
  2660  1FED                     	;# 
  2661  1FEE                     	;# 
  2662  1FEF                     	;# 
  2663  0000                     	;# 
  2664  0001                     	;# 
  2665  0002                     	;# 
  2666  0003                     	;# 
  2667  0004                     	;# 
  2668  0005                     	;# 
  2669  0006                     	;# 
  2670  0007                     	;# 
  2671  0008                     	;# 
  2672  0009                     	;# 
  2673  000A                     	;# 
  2674  000B                     	;# 
  2675  000C                     	;# 
  2676  000D                     	;# 
  2677  000E                     	;# 
  2678  0010                     	;# 
  2679  0011                     	;# 
  2680  0012                     	;# 
  2681  0013                     	;# 
  2682  0016                     	;# 
  2683  0017                     	;# 
  2684  0018                     	;# 
  2685  001C                     	;# 
  2686  001C                     	;# 
  2687  001D                     	;# 
  2688  001D                     	;# 
  2689  001E                     	;# 
  2690  001F                     	;# 
  2691  008C                     	;# 
  2692  008C                     	;# 
  2693  008D                     	;# 
  2694  008E                     	;# 
  2695  008E                     	;# 
  2696  008F                     	;# 
  2697  0090                     	;# 
  2698  0090                     	;# 
  2699  0091                     	;# 
  2700  0093                     	;# 
  2701  0094                     	;# 
  2702  0095                     	;# 
  2703  0096                     	;# 
  2704  0097                     	;# 
  2705  0098                     	;# 
  2706  0099                     	;# 
  2707  009A                     	;# 
  2708  009B                     	;# 
  2709  009C                     	;# 
  2710  009D                     	;# 
  2711  009E                     	;# 
  2712  010C                     	;# 
  2713  010D                     	;# 
  2714  010E                     	;# 
  2715  010E                     	;# 
  2716  010F                     	;# 
  2717  0110                     	;# 
  2718  0110                     	;# 
  2719  0111                     	;# 
  2720  0112                     	;# 
  2721  0112                     	;# 
  2722  0113                     	;# 
  2723  0114                     	;# 
  2724  0114                     	;# 
  2725  0115                     	;# 
  2726  0116                     	;# 
  2727  0116                     	;# 
  2728  0117                     	;# 
  2729  0119                     	;# 
  2730  0119                     	;# 
  2731  0119                     	;# 
  2732  011A                     	;# 
  2733  011A                     	;# 
  2734  011A                     	;# 
  2735  011B                     	;# 
  2736  011B                     	;# 
  2737  011B                     	;# 
  2738  011B                     	;# 
  2739  011B                     	;# 
  2740  011C                     	;# 
  2741  011C                     	;# 
  2742  011C                     	;# 
  2743  011D                     	;# 
  2744  011D                     	;# 
  2745  011D                     	;# 
  2746  011E                     	;# 
  2747  011E                     	;# 
  2748  011E                     	;# 
  2749  011F                     	;# 
  2750  011F                     	;# 
  2751  011F                     	;# 
  2752  011F                     	;# 
  2753  011F                     	;# 
  2754  018C                     	;# 
  2755  018D                     	;# 
  2756  018E                     	;# 
  2757  018F                     	;# 
  2758  0190                     	;# 
  2759  0191                     	;# 
  2760  0192                     	;# 
  2761  0196                     	;# 
  2762  0197                     	;# 
  2763  0198                     	;# 
  2764  0199                     	;# 
  2765  019A                     	;# 
  2766  019B                     	;# 
  2767  019C                     	;# 
  2768  020C                     	;# 
  2769  020C                     	;# 
  2770  020D                     	;# 
  2771  020E                     	;# 
  2772  020F                     	;# 
  2773  020F                     	;# 
  2774  0210                     	;# 
  2775  0210                     	;# 
  2776  0211                     	;# 
  2777  0211                     	;# 
  2778  0212                     	;# 
  2779  0212                     	;# 
  2780  0213                     	;# 
  2781  0214                     	;# 
  2782  0215                     	;# 
  2783  0215                     	;# 
  2784  0216                     	;# 
  2785  0216                     	;# 
  2786  0217                     	;# 
  2787  0217                     	;# 
  2788  0218                     	;# 
  2789  0218                     	;# 
  2790  0219                     	;# 
  2791  021A                     	;# 
  2792  021B                     	;# 
  2793  021B                     	;# 
  2794  021C                     	;# 
  2795  021C                     	;# 
  2796  021D                     	;# 
  2797  021D                     	;# 
  2798  021E                     	;# 
  2799  021F                     	;# 
  2800  028C                     	;# 
  2801  028C                     	;# 
  2802  028D                     	;# 
  2803  028D                     	;# 
  2804  028E                     	;# 
  2805  028F                     	;# 
  2806  0290                     	;# 
  2807  0290                     	;# 
  2808  0291                     	;# 
  2809  0292                     	;# 
  2810  0292                     	;# 
  2811  0293                     	;# 
  2812  0293                     	;# 
  2813  0294                     	;# 
  2814  0295                     	;# 
  2815  0296                     	;# 
  2816  0296                     	;# 
  2817  0297                     	;# 
  2818  0298                     	;# 
  2819  0298                     	;# 
  2820  0299                     	;# 
  2821  0299                     	;# 
  2822  029A                     	;# 
  2823  029B                     	;# 
  2824  029C                     	;# 
  2825  029C                     	;# 
  2826  029D                     	;# 
  2827  030C                     	;# 
  2828  030C                     	;# 
  2829  030D                     	;# 
  2830  030E                     	;# 
  2831  030F                     	;# 
  2832  0310                     	;# 
  2833  0310                     	;# 
  2834  0311                     	;# 
  2835  0312                     	;# 
  2836  0313                     	;# 
  2837  0314                     	;# 
  2838  0314                     	;# 
  2839  0315                     	;# 
  2840  0316                     	;# 
  2841  0317                     	;# 
  2842  0318                     	;# 
  2843  0318                     	;# 
  2844  0319                     	;# 
  2845  031A                     	;# 
  2846  031B                     	;# 
  2847  031C                     	;# 
  2848  031C                     	;# 
  2849  031D                     	;# 
  2850  031E                     	;# 
  2851  031F                     	;# 
  2852  038C                     	;# 
  2853  038C                     	;# 
  2854  038D                     	;# 
  2855  038E                     	;# 
  2856  0390                     	;# 
  2857  0390                     	;# 
  2858  0391                     	;# 
  2859  0392                     	;# 
  2860  040C                     	;# 
  2861  040D                     	;# 
  2862  040E                     	;# 
  2863  040F                     	;# 
  2864  0410                     	;# 
  2865  0411                     	;# 
  2866  0416                     	;# 
  2867  0416                     	;# 
  2868  0417                     	;# 
  2869  0418                     	;# 
  2870  0418                     	;# 
  2871  0419                     	;# 
  2872  041A                     	;# 
  2873  041A                     	;# 
  2874  041B                     	;# 
  2875  041C                     	;# 
  2876  041C                     	;# 
  2877  041D                     	;# 
  2878  041E                     	;# 
  2879  041F                     	;# 
  2880  048C                     	;# 
  2881  048C                     	;# 
  2882  048D                     	;# 
  2883  048E                     	;# 
  2884  048F                     	;# 
  2885  048F                     	;# 
  2886  0490                     	;# 
  2887  0491                     	;# 
  2888  0492                     	;# 
  2889  0492                     	;# 
  2890  0493                     	;# 
  2891  0494                     	;# 
  2892  0495                     	;# 
  2893  0495                     	;# 
  2894  0496                     	;# 
  2895  0497                     	;# 
  2896  0498                     	;# 
  2897  0499                     	;# 
  2898  049A                     	;# 
  2899  049B                     	;# 
  2900  049C                     	;# 
  2901  049D                     	;# 
  2902  050C                     	;# 
  2903  050C                     	;# 
  2904  050D                     	;# 
  2905  050E                     	;# 
  2906  050F                     	;# 
  2907  050F                     	;# 
  2908  0510                     	;# 
  2909  0511                     	;# 
  2910  0512                     	;# 
  2911  0512                     	;# 
  2912  0513                     	;# 
  2913  0514                     	;# 
  2914  0515                     	;# 
  2915  0515                     	;# 
  2916  0516                     	;# 
  2917  0517                     	;# 
  2918  0518                     	;# 
  2919  0519                     	;# 
  2920  051A                     	;# 
  2921  051B                     	;# 
  2922  051C                     	;# 
  2923  051D                     	;# 
  2924  058C                     	;# 
  2925  058C                     	;# 
  2926  058D                     	;# 
  2927  058E                     	;# 
  2928  058F                     	;# 
  2929  058F                     	;# 
  2930  0590                     	;# 
  2931  0591                     	;# 
  2932  0592                     	;# 
  2933  0593                     	;# 
  2934  060C                     	;# 
  2935  060D                     	;# 
  2936  060E                     	;# 
  2937  060F                     	;# 
  2938  0610                     	;# 
  2939  0611                     	;# 
  2940  0612                     	;# 
  2941  0613                     	;# 
  2942  0614                     	;# 
  2943  0616                     	;# 
  2944  0617                     	;# 
  2945  0618                     	;# 
  2946  0619                     	;# 
  2947  061A                     	;# 
  2948  061B                     	;# 
  2949  061C                     	;# 
  2950  061D                     	;# 
  2951  061E                     	;# 
  2952  068C                     	;# 
  2953  068D                     	;# 
  2954  068E                     	;# 
  2955  068F                     	;# 
  2956  0690                     	;# 
  2957  0691                     	;# 
  2958  0692                     	;# 
  2959  0693                     	;# 
  2960  0694                     	;# 
  2961  070C                     	;# 
  2962  070D                     	;# 
  2963  070E                     	;# 
  2964  070F                     	;# 
  2965  0710                     	;# 
  2966  0711                     	;# 
  2967  0712                     	;# 
  2968  0713                     	;# 
  2969  0714                     	;# 
  2970  0716                     	;# 
  2971  0717                     	;# 
  2972  0718                     	;# 
  2973  0719                     	;# 
  2974  071A                     	;# 
  2975  071B                     	;# 
  2976  071C                     	;# 
  2977  071D                     	;# 
  2978  071E                     	;# 
  2979  0796                     	;# 
  2980  0797                     	;# 
  2981  0798                     	;# 
  2982  0799                     	;# 
  2983  079A                     	;# 
  2984  079B                     	;# 
  2985  080C                     	;# 
  2986  080D                     	;# 
  2987  080E                     	;# 
  2988  080F                     	;# 
  2989  0810                     	;# 
  2990  0811                     	;# 
  2991  0812                     	;# 
  2992  0813                     	;# 
  2993  0814                     	;# 
  2994  081A                     	;# 
  2995  081B                     	;# 
  2996  081C                     	;# 
  2997  081D                     	;# 
  2998  081E                     	;# 
  2999  081F                     	;# 
  3000  088C                     	;# 
  3001  088D                     	;# 
  3002  088E                     	;# 
  3003  088F                     	;# 
  3004  0890                     	;# 
  3005  0891                     	;# 
  3006  0892                     	;# 
  3007  0893                     	;# 
  3008  0895                     	;# 
  3009  0896                     	;# 
  3010  0897                     	;# 
  3011  0898                     	;# 
  3012  0899                     	;# 
  3013  089A                     	;# 
  3014  089B                     	;# 
  3015  090C                     	;# 
  3016  090E                     	;# 
  3017  090F                     	;# 
  3018  091F                     	;# 
  3019  098F                     	;# 
  3020  098F                     	;# 
  3021  0990                     	;# 
  3022  0991                     	;# 
  3023  0992                     	;# 
  3024  0993                     	;# 
  3025  0994                     	;# 
  3026  0995                     	;# 
  3027  0996                     	;# 
  3028  0997                     	;# 
  3029  1E0F                     	;# 
  3030  1E10                     	;# 
  3031  1E11                     	;# 
  3032  1E12                     	;# 
  3033  1E13                     	;# 
  3034  1E14                     	;# 
  3035  1E15                     	;# 
  3036  1E16                     	;# 
  3037  1E17                     	;# 
  3038  1E18                     	;# 
  3039  1E19                     	;# 
  3040  1E1A                     	;# 
  3041  1E1B                     	;# 
  3042  1E1C                     	;# 
  3043  1E1D                     	;# 
  3044  1E1E                     	;# 
  3045  1E1F                     	;# 
  3046  1E20                     	;# 
  3047  1E21                     	;# 
  3048  1E22                     	;# 
  3049  1E23                     	;# 
  3050  1E24                     	;# 
  3051  1E25                     	;# 
  3052  1E26                     	;# 
  3053  1E27                     	;# 
  3054  1E28                     	;# 
  3055  1E29                     	;# 
  3056  1E2A                     	;# 
  3057  1E2B                     	;# 
  3058  1E2C                     	;# 
  3059  1E2D                     	;# 
  3060  1E2E                     	;# 
  3061  1E2F                     	;# 
  3062  1E30                     	;# 
  3063  1E31                     	;# 
  3064  1E32                     	;# 
  3065  1E33                     	;# 
  3066  1E34                     	;# 
  3067  1E35                     	;# 
  3068  1E36                     	;# 
  3069  1E37                     	;# 
  3070  1E8F                     	;# 
  3071  1E90                     	;# 
  3072  1E91                     	;# 
  3073  1E92                     	;# 
  3074  1E93                     	;# 
  3075  1E94                     	;# 
  3076  1E95                     	;# 
  3077  1E96                     	;# 
  3078  1E97                     	;# 
  3079  1E9C                     	;# 
  3080  1E9D                     	;# 
  3081  1E9E                     	;# 
  3082  1EA1                     	;# 
  3083  1EA2                     	;# 
  3084  1EA3                     	;# 
  3085  1EA4                     	;# 
  3086  1EA5                     	;# 
  3087  1EA9                     	;# 
  3088  1EAA                     	;# 
  3089  1EAB                     	;# 
  3090  1EAC                     	;# 
  3091  1EB1                     	;# 
  3092  1EB2                     	;# 
  3093  1EB3                     	;# 
  3094  1EB8                     	;# 
  3095  1EB9                     	;# 
  3096  1EBA                     	;# 
  3097  1EBB                     	;# 
  3098  1EBC                     	;# 
  3099  1EBD                     	;# 
  3100  1EBE                     	;# 
  3101  1EC3                     	;# 
  3102  1EC5                     	;# 
  3103  1EC6                     	;# 
  3104  1EC7                     	;# 
  3105  1EC8                     	;# 
  3106  1EC9                     	;# 
  3107  1ECA                     	;# 
  3108  1ECB                     	;# 
  3109  1ECC                     	;# 
  3110  1F10                     	;# 
  3111  1F11                     	;# 
  3112  1F12                     	;# 
  3113  1F13                     	;# 
  3114  1F14                     	;# 
  3115  1F15                     	;# 
  3116  1F16                     	;# 
  3117  1F17                     	;# 
  3118  1F18                     	;# 
  3119  1F19                     	;# 
  3120  1F1A                     	;# 
  3121  1F1B                     	;# 
  3122  1F1C                     	;# 
  3123  1F1D                     	;# 
  3124  1F1E                     	;# 
  3125  1F1F                     	;# 
  3126  1F20                     	;# 
  3127  1F21                     	;# 
  3128  1F22                     	;# 
  3129  1F23                     	;# 
  3130  1F24                     	;# 
  3131  1F25                     	;# 
  3132  1F26                     	;# 
  3133  1F27                     	;# 
  3134  1F38                     	;# 
  3135  1F39                     	;# 
  3136  1F3A                     	;# 
  3137  1F3B                     	;# 
  3138  1F3C                     	;# 
  3139  1F3D                     	;# 
  3140  1F3E                     	;# 
  3141  1F3F                     	;# 
  3142  1F40                     	;# 
  3143  1F41                     	;# 
  3144  1F43                     	;# 
  3145  1F44                     	;# 
  3146  1F45                     	;# 
  3147  1F46                     	;# 
  3148  1F47                     	;# 
  3149  1F48                     	;# 
  3150  1F49                     	;# 
  3151  1F4A                     	;# 
  3152  1F4B                     	;# 
  3153  1F4C                     	;# 
  3154  1F4E                     	;# 
  3155  1F4F                     	;# 
  3156  1F50                     	;# 
  3157  1F51                     	;# 
  3158  1F52                     	;# 
  3159  1F53                     	;# 
  3160  1F54                     	;# 
  3161  1F55                     	;# 
  3162  1F56                     	;# 
  3163  1F57                     	;# 
  3164  1F65                     	;# 
  3165  1F68                     	;# 
  3166  1F69                     	;# 
  3167  1F6A                     	;# 
  3168  1F6B                     	;# 
  3169  1FE4                     	;# 
  3170  1FE5                     	;# 
  3171  1FE6                     	;# 
  3172  1FE7                     	;# 
  3173  1FE8                     	;# 
  3174  1FE9                     	;# 
  3175  1FEA                     	;# 
  3176  1FEB                     	;# 
  3177  1FED                     	;# 
  3178  1FEE                     	;# 
  3179  1FEF                     	;# 
  3180  0000                     	;# 
  3181  0001                     	;# 
  3182  0002                     	;# 
  3183  0003                     	;# 
  3184  0004                     	;# 
  3185  0005                     	;# 
  3186  0006                     	;# 
  3187  0007                     	;# 
  3188  0008                     	;# 
  3189  0009                     	;# 
  3190  000A                     	;# 
  3191  000B                     	;# 
  3192  000C                     	;# 
  3193  000D                     	;# 
  3194  000E                     	;# 
  3195  0010                     	;# 
  3196  0011                     	;# 
  3197  0012                     	;# 
  3198  0013                     	;# 
  3199  0016                     	;# 
  3200  0017                     	;# 
  3201  0018                     	;# 
  3202  001C                     	;# 
  3203  001C                     	;# 
  3204  001D                     	;# 
  3205  001D                     	;# 
  3206  001E                     	;# 
  3207  001F                     	;# 
  3208  008C                     	;# 
  3209  008C                     	;# 
  3210  008D                     	;# 
  3211  008E                     	;# 
  3212  008E                     	;# 
  3213  008F                     	;# 
  3214  0090                     	;# 
  3215  0090                     	;# 
  3216  0091                     	;# 
  3217  0093                     	;# 
  3218  0094                     	;# 
  3219  0095                     	;# 
  3220  0096                     	;# 
  3221  0097                     	;# 
  3222  0098                     	;# 
  3223  0099                     	;# 
  3224  009A                     	;# 
  3225  009B                     	;# 
  3226  009C                     	;# 
  3227  009D                     	;# 
  3228  009E                     	;# 
  3229  010C                     	;# 
  3230  010D                     	;# 
  3231  010E                     	;# 
  3232  010E                     	;# 
  3233  010F                     	;# 
  3234  0110                     	;# 
  3235  0110                     	;# 
  3236  0111                     	;# 
  3237  0112                     	;# 
  3238  0112                     	;# 
  3239  0113                     	;# 
  3240  0114                     	;# 
  3241  0114                     	;# 
  3242  0115                     	;# 
  3243  0116                     	;# 
  3244  0116                     	;# 
  3245  0117                     	;# 
  3246  0119                     	;# 
  3247  0119                     	;# 
  3248  0119                     	;# 
  3249  011A                     	;# 
  3250  011A                     	;# 
  3251  011A                     	;# 
  3252  011B                     	;# 
  3253  011B                     	;# 
  3254  011B                     	;# 
  3255  011B                     	;# 
  3256  011B                     	;# 
  3257  011C                     	;# 
  3258  011C                     	;# 
  3259  011C                     	;# 
  3260  011D                     	;# 
  3261  011D                     	;# 
  3262  011D                     	;# 
  3263  011E                     	;# 
  3264  011E                     	;# 
  3265  011E                     	;# 
  3266  011F                     	;# 
  3267  011F                     	;# 
  3268  011F                     	;# 
  3269  011F                     	;# 
  3270  011F                     	;# 
  3271  018C                     	;# 
  3272  018D                     	;# 
  3273  018E                     	;# 
  3274  018F                     	;# 
  3275  0190                     	;# 
  3276  0191                     	;# 
  3277  0192                     	;# 
  3278  0196                     	;# 
  3279  0197                     	;# 
  3280  0198                     	;# 
  3281  0199                     	;# 
  3282  019A                     	;# 
  3283  019B                     	;# 
  3284  019C                     	;# 
  3285  020C                     	;# 
  3286  020C                     	;# 
  3287  020D                     	;# 
  3288  020E                     	;# 
  3289  020F                     	;# 
  3290  020F                     	;# 
  3291  0210                     	;# 
  3292  0210                     	;# 
  3293  0211                     	;# 
  3294  0211                     	;# 
  3295  0212                     	;# 
  3296  0212                     	;# 
  3297  0213                     	;# 
  3298  0214                     	;# 
  3299  0215                     	;# 
  3300  0215                     	;# 
  3301  0216                     	;# 
  3302  0216                     	;# 
  3303  0217                     	;# 
  3304  0217                     	;# 
  3305  0218                     	;# 
  3306  0218                     	;# 
  3307  0219                     	;# 
  3308  021A                     	;# 
  3309  021B                     	;# 
  3310  021B                     	;# 
  3311  021C                     	;# 
  3312  021C                     	;# 
  3313  021D                     	;# 
  3314  021D                     	;# 
  3315  021E                     	;# 
  3316  021F                     	;# 
  3317  028C                     	;# 
  3318  028C                     	;# 
  3319  028D                     	;# 
  3320  028D                     	;# 
  3321  028E                     	;# 
  3322  028F                     	;# 
  3323  0290                     	;# 
  3324  0290                     	;# 
  3325  0291                     	;# 
  3326  0292                     	;# 
  3327  0292                     	;# 
  3328  0293                     	;# 
  3329  0293                     	;# 
  3330  0294                     	;# 
  3331  0295                     	;# 
  3332  0296                     	;# 
  3333  0296                     	;# 
  3334  0297                     	;# 
  3335  0298                     	;# 
  3336  0298                     	;# 
  3337  0299                     	;# 
  3338  0299                     	;# 
  3339  029A                     	;# 
  3340  029B                     	;# 
  3341  029C                     	;# 
  3342  029C                     	;# 
  3343  029D                     	;# 
  3344  030C                     	;# 
  3345  030C                     	;# 
  3346  030D                     	;# 
  3347  030E                     	;# 
  3348  030F                     	;# 
  3349  0310                     	;# 
  3350  0310                     	;# 
  3351  0311                     	;# 
  3352  0312                     	;# 
  3353  0313                     	;# 
  3354  0314                     	;# 
  3355  0314                     	;# 
  3356  0315                     	;# 
  3357  0316                     	;# 
  3358  0317                     	;# 
  3359  0318                     	;# 
  3360  0318                     	;# 
  3361  0319                     	;# 
  3362  031A                     	;# 
  3363  031B                     	;# 
  3364  031C                     	;# 
  3365  031C                     	;# 
  3366  031D                     	;# 
  3367  031E                     	;# 
  3368  031F                     	;# 
  3369  038C                     	;# 
  3370  038C                     	;# 
  3371  038D                     	;# 
  3372  038E                     	;# 
  3373  0390                     	;# 
  3374  0390                     	;# 
  3375  0391                     	;# 
  3376  0392                     	;# 
  3377  040C                     	;# 
  3378  040D                     	;# 
  3379  040E                     	;# 
  3380  040F                     	;# 
  3381  0410                     	;# 
  3382  0411                     	;# 
  3383  0416                     	;# 
  3384  0416                     	;# 
  3385  0417                     	;# 
  3386  0418                     	;# 
  3387  0418                     	;# 
  3388  0419                     	;# 
  3389  041A                     	;# 
  3390  041A                     	;# 
  3391  041B                     	;# 
  3392  041C                     	;# 
  3393  041C                     	;# 
  3394  041D                     	;# 
  3395  041E                     	;# 
  3396  041F                     	;# 
  3397  048C                     	;# 
  3398  048C                     	;# 
  3399  048D                     	;# 
  3400  048E                     	;# 
  3401  048F                     	;# 
  3402  048F                     	;# 
  3403  0490                     	;# 
  3404  0491                     	;# 
  3405  0492                     	;# 
  3406  0492                     	;# 
  3407  0493                     	;# 
  3408  0494                     	;# 
  3409  0495                     	;# 
  3410  0495                     	;# 
  3411  0496                     	;# 
  3412  0497                     	;# 
  3413  0498                     	;# 
  3414  0499                     	;# 
  3415  049A                     	;# 
  3416  049B                     	;# 
  3417  049C                     	;# 
  3418  049D                     	;# 
  3419  050C                     	;# 
  3420  050C                     	;# 
  3421  050D                     	;# 
  3422  050E                     	;# 
  3423  050F                     	;# 
  3424  050F                     	;# 
  3425  0510                     	;# 
  3426  0511                     	;# 
  3427  0512                     	;# 
  3428  0512                     	;# 
  3429  0513                     	;# 
  3430  0514                     	;# 
  3431  0515                     	;# 
  3432  0515                     	;# 
  3433  0516                     	;# 
  3434  0517                     	;# 
  3435  0518                     	;# 
  3436  0519                     	;# 
  3437  051A                     	;# 
  3438  051B                     	;# 
  3439  051C                     	;# 
  3440  051D                     	;# 
  3441  058C                     	;# 
  3442  058C                     	;# 
  3443  058D                     	;# 
  3444  058E                     	;# 
  3445  058F                     	;# 
  3446  058F                     	;# 
  3447  0590                     	;# 
  3448  0591                     	;# 
  3449  0592                     	;# 
  3450  0593                     	;# 
  3451  060C                     	;# 
  3452  060D                     	;# 
  3453  060E                     	;# 
  3454  060F                     	;# 
  3455  0610                     	;# 
  3456  0611                     	;# 
  3457  0612                     	;# 
  3458  0613                     	;# 
  3459  0614                     	;# 
  3460  0616                     	;# 
  3461  0617                     	;# 
  3462  0618                     	;# 
  3463  0619                     	;# 
  3464  061A                     	;# 
  3465  061B                     	;# 
  3466  061C                     	;# 
  3467  061D                     	;# 
  3468  061E                     	;# 
  3469  068C                     	;# 
  3470  068D                     	;# 
  3471  068E                     	;# 
  3472  068F                     	;# 
  3473  0690                     	;# 
  3474  0691                     	;# 
  3475  0692                     	;# 
  3476  0693                     	;# 
  3477  0694                     	;# 
  3478  070C                     	;# 
  3479  070D                     	;# 
  3480  070E                     	;# 
  3481  070F                     	;# 
  3482  0710                     	;# 
  3483  0711                     	;# 
  3484  0712                     	;# 
  3485  0713                     	;# 
  3486  0714                     	;# 
  3487  0716                     	;# 
  3488  0717                     	;# 
  3489  0718                     	;# 
  3490  0719                     	;# 
  3491  071A                     	;# 
  3492  071B                     	;# 
  3493  071C                     	;# 
  3494  071D                     	;# 
  3495  071E                     	;# 
  3496  0796                     	;# 
  3497  0797                     	;# 
  3498  0798                     	;# 
  3499  0799                     	;# 
  3500  079A                     	;# 
  3501  079B                     	;# 
  3502  080C                     	;# 
  3503  080D                     	;# 
  3504  080E                     	;# 
  3505  080F                     	;# 
  3506  0810                     	;# 
  3507  0811                     	;# 
  3508  0812                     	;# 
  3509  0813                     	;# 
  3510  0814                     	;# 
  3511  081A                     	;# 
  3512  081B                     	;# 
  3513  081C                     	;# 
  3514  081D                     	;# 
  3515  081E                     	;# 
  3516  081F                     	;# 
  3517  088C                     	;# 
  3518  088D                     	;# 
  3519  088E                     	;# 
  3520  088F                     	;# 
  3521  0890                     	;# 
  3522  0891                     	;# 
  3523  0892                     	;# 
  3524  0893                     	;# 
  3525  0895                     	;# 
  3526  0896                     	;# 
  3527  0897                     	;# 
  3528  0898                     	;# 
  3529  0899                     	;# 
  3530  089A                     	;# 
  3531  089B                     	;# 
  3532  090C                     	;# 
  3533  090E                     	;# 
  3534  090F                     	;# 
  3535  091F                     	;# 
  3536  098F                     	;# 
  3537  098F                     	;# 
  3538  0990                     	;# 
  3539  0991                     	;# 
  3540  0992                     	;# 
  3541  0993                     	;# 
  3542  0994                     	;# 
  3543  0995                     	;# 
  3544  0996                     	;# 
  3545  0997                     	;# 
  3546  1E0F                     	;# 
  3547  1E10                     	;# 
  3548  1E11                     	;# 
  3549  1E12                     	;# 
  3550  1E13                     	;# 
  3551  1E14                     	;# 
  3552  1E15                     	;# 
  3553  1E16                     	;# 
  3554  1E17                     	;# 
  3555  1E18                     	;# 
  3556  1E19                     	;# 
  3557  1E1A                     	;# 
  3558  1E1B                     	;# 
  3559  1E1C                     	;# 
  3560  1E1D                     	;# 
  3561  1E1E                     	;# 
  3562  1E1F                     	;# 
  3563  1E20                     	;# 
  3564  1E21                     	;# 
  3565  1E22                     	;# 
  3566  1E23                     	;# 
  3567  1E24                     	;# 
  3568  1E25                     	;# 
  3569  1E26                     	;# 
  3570  1E27                     	;# 
  3571  1E28                     	;# 
  3572  1E29                     	;# 
  3573  1E2A                     	;# 
  3574  1E2B                     	;# 
  3575  1E2C                     	;# 
  3576  1E2D                     	;# 
  3577  1E2E                     	;# 
  3578  1E2F                     	;# 
  3579  1E30                     	;# 
  3580  1E31                     	;# 
  3581  1E32                     	;# 
  3582  1E33                     	;# 
  3583  1E34                     	;# 
  3584  1E35                     	;# 
  3585  1E36                     	;# 
  3586  1E37                     	;# 
  3587  1E8F                     	;# 
  3588  1E90                     	;# 
  3589  1E91                     	;# 
  3590  1E92                     	;# 
  3591  1E93                     	;# 
  3592  1E94                     	;# 
  3593  1E95                     	;# 
  3594  1E96                     	;# 
  3595  1E97                     	;# 
  3596  1E9C                     	;# 
  3597  1E9D                     	;# 
  3598  1E9E                     	;# 
  3599  1EA1                     	;# 
  3600  1EA2                     	;# 
  3601  1EA3                     	;# 
  3602  1EA4                     	;# 
  3603  1EA5                     	;# 
  3604  1EA9                     	;# 
  3605  1EAA                     	;# 
  3606  1EAB                     	;# 
  3607  1EAC                     	;# 
  3608  1EB1                     	;# 
  3609  1EB2                     	;# 
  3610  1EB3                     	;# 
  3611  1EB8                     	;# 
  3612  1EB9                     	;# 
  3613  1EBA                     	;# 
  3614  1EBB                     	;# 
  3615  1EBC                     	;# 
  3616  1EBD                     	;# 
  3617  1EBE                     	;# 
  3618  1EC3                     	;# 
  3619  1EC5                     	;# 
  3620  1EC6                     	;# 
  3621  1EC7                     	;# 
  3622  1EC8                     	;# 
  3623  1EC9                     	;# 
  3624  1ECA                     	;# 
  3625  1ECB                     	;# 
  3626  1ECC                     	;# 
  3627  1F10                     	;# 
  3628  1F11                     	;# 
  3629  1F12                     	;# 
  3630  1F13                     	;# 
  3631  1F14                     	;# 
  3632  1F15                     	;# 
  3633  1F16                     	;# 
  3634  1F17                     	;# 
  3635  1F18                     	;# 
  3636  1F19                     	;# 
  3637  1F1A                     	;# 
  3638  1F1B                     	;# 
  3639  1F1C                     	;# 
  3640  1F1D                     	;# 
  3641  1F1E                     	;# 
  3642  1F1F                     	;# 
  3643  1F20                     	;# 
  3644  1F21                     	;# 
  3645  1F22                     	;# 
  3646  1F23                     	;# 
  3647  1F24                     	;# 
  3648  1F25                     	;# 
  3649  1F26                     	;# 
  3650  1F27                     	;# 
  3651  1F38                     	;# 
  3652  1F39                     	;# 
  3653  1F3A                     	;# 
  3654  1F3B                     	;# 
  3655  1F3C                     	;# 
  3656  1F3D                     	;# 
  3657  1F3E                     	;# 
  3658  1F3F                     	;# 
  3659  1F40                     	;# 
  3660  1F41                     	;# 
  3661  1F43                     	;# 
  3662  1F44                     	;# 
  3663  1F45                     	;# 
  3664  1F46                     	;# 
  3665  1F47                     	;# 
  3666  1F48                     	;# 
  3667  1F49                     	;# 
  3668  1F4A                     	;# 
  3669  1F4B                     	;# 
  3670  1F4C                     	;# 
  3671  1F4E                     	;# 
  3672  1F4F                     	;# 
  3673  1F50                     	;# 
  3674  1F51                     	;# 
  3675  1F52                     	;# 
  3676  1F53                     	;# 
  3677  1F54                     	;# 
  3678  1F55                     	;# 
  3679  1F56                     	;# 
  3680  1F57                     	;# 
  3681  1F65                     	;# 
  3682  1F68                     	;# 
  3683  1F69                     	;# 
  3684  1F6A                     	;# 
  3685  1F6B                     	;# 
  3686  1FE4                     	;# 
  3687  1FE5                     	;# 
  3688  1FE6                     	;# 
  3689  1FE7                     	;# 
  3690  1FE8                     	;# 
  3691  1FE9                     	;# 
  3692  1FEA                     	;# 
  3693  1FEB                     	;# 
  3694  1FED                     	;# 
  3695  1FEE                     	;# 
  3696  1FEF                     	;# 
  3697                           
  3698                           	psect	idataBANK1
  3699  042B                     __pidataBANK1:	
  3700                           
  3701                           ;initializer for main@F11816
  3702  042B  34FF               	retlw	255
  3703  042C  3403               	retlw	3
  3704  042D  3400               	retlw	0
  3705  042E  3400               	retlw	0
  3706  042F  34FF               	retlw	255
  3707  0430  3403               	retlw	3
  3708  0431  3400               	retlw	0
  3709  0432  3400               	retlw	0
  3710  0433  34FF               	retlw	255
  3711  0434  3403               	retlw	3
  3712  0435  3400               	retlw	0
  3713  0436  3400               	retlw	0
  3714  0437  34FF               	retlw	255
  3715  0438  3403               	retlw	3
  3716  0439  3400               	retlw	0
  3717  043A  3400               	retlw	0
  3718                           
  3719                           	psect	nvBANK1
  3720  00D6                     __pnvBANK1:	
  3721  00D6                     _EUSART_ErrorHandler:	
  3722  00D6                     	ds	2
  3723  00D8                     _EUSART_OverrunErrorHandler:	
  3724  00D8                     	ds	2
  3725  00DA                     _EUSART_FramingErrorHandler:	
  3726  00DA                     	ds	2
  3727  00DC                     _EUSART_RxDefaultInterruptHandler:	
  3728  00DC                     	ds	2
  3729  00DE                     _EUSART_TxDefaultInterruptHandler:	
  3730  00DE                     	ds	2
  3731  00E0                     _eusartTxBufferRemaining:	
  3732  00E0                     	ds	1
  3733  0018                     _LATCbits	set	24
  3734  000D                     _PORTBbits	set	13
  3735  0013                     _TRISC	set	19
  3736  0012                     _TRISB	set	18
  3737  0011                     _TRISA	set	17
  3738  0018                     _LATC	set	24
  3739  0017                     _LATB	set	23
  3740  0016                     _LATA	set	22
  3741  000B                     _INTCONbits	set	11
  3742  0094                     _ADCON1bits	set	148
  3743  008E                     _ADPREVL	set	142
  3744  008F                     _ADPREVH	set	143
  3745  0097                     _ADSTATbits	set	151
  3746  0090                     _ADACCL	set	144
  3747  0091                     _ADACCH	set	145
  3748  0095                     _ADCON2bits	set	149
  3749  0096                     _ADCON3bits	set	150
  3750  008C                     _ADRESL	set	140
  3751  008D                     _ADRESH	set	141
  3752  0093                     _ADCON0bits	set	147
  3753  009D                     _ADACQ	set	157
  3754  0093                     _ADCON0	set	147
  3755  0098                     _ADCLK	set	152
  3756  0099                     _ADACT	set	153
  3757  009A                     _ADREF	set	154
  3758  0097                     _ADSTAT	set	151
  3759  0096                     _ADCON3	set	150
  3760  0095                     _ADCON2	set	149
  3761  0094                     _ADCON1	set	148
  3762  009C                     _ADPRE	set	156
  3763  009B                     _ADCAP	set	155
  3764  009E                     _ADPCH	set	158
  3765  0119                     _RC1REG	set	281
  3766  011D                     _RC1STAbits	set	285
  3767  011A                     _TX1REG	set	282
  3768  011E                     _TX1STAbits	set	286
  3769  011C                     _SP1BRGH	set	284
  3770  011B                     _SP1BRGL	set	283
  3771  011E                     _TX1STA	set	286
  3772  011D                     _RC1STA	set	285
  3773  011F                     _BAUD1CON	set	287
  3774  0116                     _ADERRL	set	278
  3775  0117                     _ADERRH	set	279
  3776  0114                     _ADFLTRL	set	276
  3777  0115                     _ADFLTRH	set	277
  3778  010C                     _ADCNT	set	268
  3779  010D                     _ADRPT	set	269
  3780  0113                     _ADSTPTH	set	275
  3781  0112                     _ADSTPTL	set	274
  3782  0111                     _ADUTHH	set	273
  3783  0110                     _ADUTHL	set	272
  3784  010F                     _ADLTHH	set	271
  3785  010E                     _ADLTHL	set	270
  3786  070F                     _PIR3bits	set	1807
  3787  0719                     _PIE3bits	set	1817
  3788  079B                     _PMD5	set	1947
  3789  079A                     _PMD4	set	1946
  3790  0799                     _PMD3	set	1945
  3791  0798                     _PMD2	set	1944
  3792  0797                     _PMD1	set	1943
  3793  0796                     _PMD0	set	1942
  3794  0892                     _OSCTUNE	set	2194
  3795  0893                     _OSCFRQ	set	2195
  3796  0891                     _OSCEN	set	2193
  3797  088F                     _OSCCON3	set	2191
  3798  088D                     _OSCCON1	set	2189
  3799  1ECB                     _RXPPS	set	7883
  3800  1F25                     _RC5PPS	set	7973
  3801  1F68                     _INLVLE	set	8040
  3802  1F52                     _INLVLC	set	8018
  3803  1F47                     _INLVLB	set	8007
  3804  1F3C                     _INLVLA	set	7996
  3805  1F51                     _SLRCONC	set	8017
  3806  1F46                     _SLRCONB	set	8006
  3807  1F3B                     _SLRCONA	set	7995
  3808  1F50                     _ODCONC	set	8016
  3809  1F45                     _ODCONB	set	8005
  3810  1F3A                     _ODCONA	set	7994
  3811  1F4F                     _WPUC	set	8015
  3812  1F39                     _WPUA	set	7993
  3813  1F44                     _WPUB	set	8004
  3814  1F65                     _WPUE	set	8037
  3815  1F38                     _ANSELA	set	7992
  3816  1F43                     _ANSELB	set	8003
  3817  1F4E                     _ANSELC	set	8014
  3818                           
  3819                           ; #config settings
  3820  0000                     
  3821                           	psect	cinit
  3822  002D                     start_initialization:	
  3823  002D                     __initialization:	
  3824                           
  3825                           ; Initialize objects allocated to BANK1
  3826  002D  302B               	movlw	low __pidataBANK1
  3827  002E  0084               	movwf	4
  3828  002F  3084               	movlw	(high __pidataBANK1)| (0+128)
  3829  0030  0085               	movwf	5
  3830  0031  30C6               	movlw	low __pdataBANK1
  3831  0032  0086               	movwf	6
  3832  0033  3000               	movlw	high __pdataBANK1
  3833  0034  0087               	movwf	7
  3834  0035  3010               	movlw	16
  3835  0036  3184  246C  3180   	fcall	init_ram
  3836                           
  3837                           ; Clear objects allocated to COMMON
  3838  0039  01F9               	clrf	__pbssCOMMON& (0+127)
  3839  003A  01FA               	clrf	(__pbssCOMMON+1)& (0+127)
  3840  003B  01FB               	clrf	(__pbssCOMMON+2)& (0+127)
  3841                           
  3842                           ; Clear objects allocated to BANK1
  3843  003C  30A0               	movlw	low __pbssBANK1
  3844  003D  0084               	movwf	4
  3845  003E  3000               	movlw	high __pbssBANK1
  3846  003F  0085               	movwf	5
  3847  0040  3014               	movlw	20
  3848  0041  3184  2472  3180   	fcall	clear_ram0
  3849                           
  3850                           ; Clear objects allocated to BANK2
  3851  0044  3020               	movlw	low __pbssBANK2
  3852  0045  0084               	movwf	4
  3853  0046  3001               	movlw	high __pbssBANK2
  3854  0047  0085               	movwf	5
  3855  0048  3040               	movlw	64
  3856  0049  3184  2472  3180   	fcall	clear_ram0
  3857                           
  3858                           ; Clear objects allocated to BANK3
  3859  004C  30A0               	movlw	low __pbssBANK3
  3860  004D  0084               	movwf	4
  3861  004E  3001               	movlw	high __pbssBANK3
  3862  004F  0085               	movwf	5
  3863  0050  3048               	movlw	72
  3864  0051  3184  2472  3180   	fcall	clear_ram0
  3865  0054                     end_of_initialization:	
  3866                           ;End of C runtime variable initialization code
  3867                           
  3868  0054                     __end_of__initialization:	
  3869  0054  107E               	bcf	int$flags,0	;clear compiler interrupt flag (level 1)
  3870  0055  0140               	movlb	0
  3871  0056  3180  2858         	ljmp	_main	;jump to C main() function
  3872                           
  3873                           	psect	bssCOMMON
  3874  0079                     __pbssCOMMON:	
  3875  0079                     _eusartRxTail:	
  3876  0079                     	ds	1
  3877  007A                     _eusartRxHead:	
  3878  007A                     	ds	1
  3879  007B                     _eusartTxHead:	
  3880  007B                     	ds	1
  3881                           
  3882                           	psect	bssBANK1
  3883  00A0                     __pbssBANK1:	
  3884  00A0                     _eusartRxStatusBuffer:	
  3885  00A0                     	ds	8
  3886  00A8                     _eusartRxBuffer:	
  3887  00A8                     	ds	8
  3888  00B0                     _tx_request:	
  3889  00B0                     	ds	1
  3890  00B1                     _eusartRxLastError:	
  3891  00B1                     	ds	1
  3892  00B2                     _eusartRxCount:	
  3893  00B2                     	ds	1
  3894  00B3                     _eusartTxTail:	
  3895  00B3                     	ds	1
  3896                           
  3897                           	psect	dataBANK1
  3898  00C6                     __pdataBANK1:	
  3899  00C6                     main@F11816:	
  3900  00C6                     	ds	16
  3901                           
  3902                           	psect	bssBANK2
  3903  0120                     __pbssBANK2:	
  3904  0120                     _eusartTxBuffer:	
  3905  0120                     	ds	64
  3906                           
  3907                           	psect	bssBANK3
  3908  01A0                     __pbssBANK3:	
  3909  01A0                     main@F11809:	
  3910  01A0                     	ds	36
  3911  01C4                     main@F11807:	
  3912  01C4                     	ds	36
  3913                           
  3914                           	psect	inittext
  3915  046C                     init_ram:	
  3916  046C  00FE               	movwf	btemp
  3917  046D                     initloop:	
  3918  046D  0012               	moviw fsr0++
  3919  046E  001E               	movwi fsr1++
  3920  046F  0BFE               	decfsz	btemp,f
  3921  0470  2C6D               	goto	initloop
  3922  0471  3400               	retlw	0
  3923                           
  3924                           	psect	clrtext
  3925  0472                     clear_ram0:	
  3926                           ;	Called with FSR0 containing the base address, and
  3927                           ;	WREG with the size to clear
  3928                           
  3929  0472  0064               	clrwdt	;clear the watchdog before getting into this loop
  3930  0473                     clrloop0:	
  3931  0473  0180               	clrf	0	;clear RAM location pointed to by FSR
  3932  0474  3101               	addfsr 0,1
  3933  0475  0B89               	decfsz	9,f	;Have we reached the end of clearing yet?
  3934  0476  2C73               	goto	clrloop0	;have we reached the end yet?
  3935  0477  3400               	retlw	0	;all done for this memory range, return
  3936                           
  3937                           	psect	cstackBANK1
  3938  00B4                     __pcstackBANK1:	
  3939  00B4                     main@IOvalue:	
  3940                           
  3941                           ; 16 bytes @ 0x0
  3942  00B4                     	ds	16
  3943  00C4                     main@i:	
  3944                           
  3945                           ; 2 bytes @ 0x10
  3946  00C4                     	ds	2
  3947                           
  3948                           	psect	cstackCOMMON
  3949  0070                     __pcstackCOMMON:	
  3950  0070                     ?_EUSART_Receive_ISR:	
  3951  0070                     ?_EUSART_Transmit_ISR:	
  3952                           ; 1 bytes @ 0x0
  3953                           
  3954  0070                     ??_EUSART_Transmit_ISR:	
  3955                           ; 1 bytes @ 0x0
  3956                           
  3957  0070                     ?_EUSART_DefaultFramingErrorHandler:	
  3958                           ; 1 bytes @ 0x0
  3959                           
  3960  0070                     ??_EUSART_DefaultFramingErrorHandler:	
  3961                           ; 1 bytes @ 0x0
  3962                           
  3963  0070                     ?_EUSART_DefaultOverrunErrorHandler:	
  3964                           ; 1 bytes @ 0x0
  3965                           
  3966  0070                     ??_EUSART_DefaultOverrunErrorHandler:	
  3967                           ; 1 bytes @ 0x0
  3968                           
  3969  0070                     ?_EUSART_DefaultErrorHandler:	
  3970                           ; 1 bytes @ 0x0
  3971                           
  3972  0070                     ?_EUSART_RxDataHandler:	
  3973                           ; 1 bytes @ 0x0
  3974                           
  3975  0070                     ??_EUSART_RxDataHandler:	
  3976                           ; 1 bytes @ 0x0
  3977                           
  3978  0070                     ?_PMD_Initialize:	
  3979                           ; 1 bytes @ 0x0
  3980                           
  3981  0070                     ?_PIN_MANAGER_Initialize:	
  3982                           ; 1 bytes @ 0x0
  3983                           
  3984  0070                     ?_OSCILLATOR_Initialize:	
  3985                           ; 1 bytes @ 0x0
  3986                           
  3987  0070                     ?_UserRxInterruptHandler:	
  3988                           ; 1 bytes @ 0x0
  3989                           
  3990  0070                     ?_ADCC_Initialize:	
  3991                           ; 1 bytes @ 0x0
  3992                           
  3993  0070                     ?_EUSART_Initialize:	
  3994                           ; 1 bytes @ 0x0
  3995                           
  3996  0070                     ?_EUSART_is_tx_done:	
  3997                           ; 1 bytes @ 0x0
  3998                           
  3999  0070                     ?_EUSART_Read:	
  4000                           ; 1 bytes @ 0x0
  4001                           
  4002  0070                     ??_EUSART_Read:	
  4003                           ; 1 bytes @ 0x0
  4004                           
  4005  0070                     ?_EUSART_Write:	
  4006                           ; 1 bytes @ 0x0
  4007                           
  4008  0070                     ?_INTERRUPT_InterruptManager:	
  4009                           ; 1 bytes @ 0x0
  4010                           
  4011  0070                     ?_SYSTEM_Initialize:	
  4012                           ; 1 bytes @ 0x0
  4013                           
  4014  0070                     ?_main:	
  4015                           ; 1 bytes @ 0x0
  4016                           
  4017                           
  4018                           ; 1 bytes @ 0x0
  4019  0070                     	ds	1
  4020  0071                     ??_EUSART_Receive_ISR:	
  4021  0071                     ??_EUSART_DefaultErrorHandler:	
  4022                           ; 1 bytes @ 0x1
  4023                           
  4024  0071                     EUSART_Read@readValue:	
  4025                           ; 1 bytes @ 0x1
  4026                           
  4027                           
  4028                           ; 1 bytes @ 0x1
  4029  0071                     	ds	1
  4030  0072                     ?_EUSART_SetRxInterruptHandler:	
  4031  0072                     ?_EUSART_SetTxInterruptHandler:	
  4032                           ; 1 bytes @ 0x2
  4033                           
  4034  0072                     ?_EUSART_SetFramingErrorHandler:	
  4035                           ; 1 bytes @ 0x2
  4036                           
  4037  0072                     ?_EUSART_SetOverrunErrorHandler:	
  4038                           ; 1 bytes @ 0x2
  4039                           
  4040  0072                     ?_EUSART_SetErrorHandler:	
  4041                           ; 1 bytes @ 0x2
  4042                           
  4043  0072                     ??_PMD_Initialize:	
  4044                           ; 1 bytes @ 0x2
  4045                           
  4046  0072                     ??_PIN_MANAGER_Initialize:	
  4047                           ; 1 bytes @ 0x2
  4048                           
  4049  0072                     ??_OSCILLATOR_Initialize:	
  4050                           ; 1 bytes @ 0x2
  4051                           
  4052  0072                     ??_UserRxInterruptHandler:	
  4053                           ; 1 bytes @ 0x2
  4054                           
  4055  0072                     ??_ADCC_Initialize:	
  4056                           ; 1 bytes @ 0x2
  4057                           
  4058  0072                     ??_EUSART_is_tx_done:	
  4059                           ; 1 bytes @ 0x2
  4060                           
  4061  0072                     ??_EUSART_Write:	
  4062                           ; 1 bytes @ 0x2
  4063                           
  4064  0072                     ??_INTERRUPT_InterruptManager:	
  4065                           ; 1 bytes @ 0x2
  4066                           
  4067  0072                     ?_ADCC_GetSingleConversion:	
  4068                           ; 1 bytes @ 0x2
  4069                           
  4070  0072                     EUSART_SetFramingErrorHandler@interruptHandler:	
  4071                           ; 2 bytes @ 0x2
  4072                           
  4073  0072                     EUSART_SetOverrunErrorHandler@interruptHandler:	
  4074                           ; 2 bytes @ 0x2
  4075                           
  4076  0072                     EUSART_SetErrorHandler@interruptHandler:	
  4077                           ; 2 bytes @ 0x2
  4078                           
  4079  0072                     EUSART_SetTxInterruptHandler@interruptHandler:	
  4080                           ; 2 bytes @ 0x2
  4081                           
  4082  0072                     EUSART_SetRxInterruptHandler@interruptHandler:	
  4083                           ; 2 bytes @ 0x2
  4084                           
  4085                           
  4086                           ; 2 bytes @ 0x2
  4087  0072                     	ds	1
  4088  0073                     EUSART_Write@txData:	
  4089                           
  4090                           ; 1 bytes @ 0x3
  4091  0073                     	ds	1
  4092  0074                     ??_EUSART_SetRxInterruptHandler:	
  4093  0074                     ??_EUSART_SetTxInterruptHandler:	
  4094                           ; 1 bytes @ 0x4
  4095                           
  4096  0074                     ??_EUSART_SetFramingErrorHandler:	
  4097                           ; 1 bytes @ 0x4
  4098                           
  4099  0074                     ??_EUSART_SetOverrunErrorHandler:	
  4100                           ; 1 bytes @ 0x4
  4101                           
  4102  0074                     ??_EUSART_SetErrorHandler:	
  4103                           ; 1 bytes @ 0x4
  4104                           
  4105  0074                     ??_EUSART_Initialize:	
  4106                           ; 1 bytes @ 0x4
  4107                           
  4108                           
  4109                           ; 1 bytes @ 0x4
  4110  0074                     	ds	1
  4111  0075                     ??_ADCC_GetSingleConversion:	
  4112  0075                     ??_SYSTEM_Initialize:	
  4113                           ; 1 bytes @ 0x5
  4114                           
  4115  0075                     ADCC_GetSingleConversion@channel:	
  4116                           ; 1 bytes @ 0x5
  4117                           
  4118                           
  4119                           ; 1 bytes @ 0x5
  4120  0075                     	ds	1
  4121  0076                     ?_max_with_threshold:	
  4122  0076                     max_with_threshold@scan_buffer:	
  4123                           ; 1 bytes @ 0x6
  4124                           
  4125                           
  4126                           ; 2 bytes @ 0x6
  4127  0076                     	ds	2
  4128  0078                     max_with_threshold@scan_max:	
  4129                           
  4130                           ; 1 bytes @ 0x8
  4131  0078                     	ds	1
  4132                           
  4133                           	psect	cstackBANK0
  4134  0020                     __pcstackBANK0:	
  4135  0020                     ??_max_with_threshold:	
  4136                           
  4137                           ; 1 bytes @ 0x0
  4138  0020                     	ds	2
  4139  0022                     ??_main:	
  4140                           
  4141                           ; 1 bytes @ 0x2
  4142  0022                     	ds	4
  4143  0026                     main@scan_max_prev:	
  4144                           
  4145                           ; 36 bytes @ 0x6
  4146  0026                     	ds	36
  4147  004A                     main@scan_max:	
  4148                           
  4149                           ; 36 bytes @ 0x2A
  4150  004A                     	ds	36
  4151  006E                     main@packet:	
  4152                           
  4153                           ; 2 bytes @ 0x4E
  4154  006E                     	ds	2
  4155                           
  4156                           	psect	maintext
  4157  0058                     __pmaintext:	
  4158 ;;
  4159 ;;Main: autosize = 0, tempsize = 4, incstack = 0, save=0
  4160 ;;
  4161 ;; *************** function _main *****************
  4162 ;; Defined at:
  4163 ;;		line 73 in file "main.c"
  4164 ;; Parameters:    Size  Location     Type
  4165 ;;		None
  4166 ;; Auto vars:     Size  Location     Type
  4167 ;;  scan_max       36   42[BANK0 ] unsigned int [18]
  4168 ;;  scan_max_pre   36    6[BANK0 ] unsigned int [18]
  4169 ;;  IOvalue        16    0[BANK1 ] unsigned int [2][4]
  4170 ;;  i               2   16[BANK1 ] unsigned int 
  4171 ;;  packet          2   78[BANK0 ] struct .
  4172 ;; Return value:  Size  Location     Type
  4173 ;;                  1    wreg      void 
  4174 ;; Registers used:
  4175 ;;		wreg, fsr0l, fsr0h, fsr1l, fsr1h, status,2, status,0, pclath, cstack
  4176 ;; Tracked objects:
  4177 ;;		On entry : B3F/0
  4178 ;;		On exit  : 0/0
  4179 ;;		Unchanged: 0/0
  4180 ;; Data sizes:     COMMON   BANK0   BANK1   BANK2   BANK3   BANK4   BANK5   BANK6   BANK7   BANK8   BANK9  BANK10  BANK1
      +1  BANK12  BANK13  BANK14  BANK15  BANK16  BANK17  BANK18  BANK19  BANK20  BANK21  BANK22  BANK23  BANK24  BANK25  BANK2
      +6  BANK27  BANK28  BANK29  BANK30  BANK31  BANK32  BANK33  BANK34  BANK35  BANK36  BANK37  BANK38  BANK39  BANK40  BANK4
      +1  BANK42  BANK43  BANK44  BANK45  BANK46  BANK47  BANK48  BANK49  BANK50
  4181 ;;      Params:         0       0       0       0       0       0       0       0       0       0       0       0       
      +0       0       0       0       0       0       0       0       0       0       0       0       0       0       0       
      +0       0       0       0       0       0       0       0       0       0       0       0       0       0       0       
      +0       0       0       0       0       0       0       0       0       0
  4182 ;;      Locals:         0      74      18       0       0       0       0       0       0       0       0       0       
      +0       0       0       0       0       0       0       0       0       0       0       0       0       0       0       
      +0       0       0       0       0       0       0       0       0       0       0       0       0       0       0       
      +0       0       0       0       0       0       0       0       0       0
  4183 ;;      Temps:          0       4       0       0       0       0       0       0       0       0       0       0       
      +0       0       0       0       0       0       0       0       0       0       0       0       0       0       0       
      +0       0       0       0       0       0       0       0       0       0       0       0       0       0       0       
      +0       0       0       0       0       0       0       0       0       0
  4184 ;;      Totals:         0      78      18       0       0       0       0       0       0       0       0       0       
      +0       0       0       0       0       0       0       0       0       0       0       0       0       0       0       
      +0       0       0       0       0       0       0       0       0       0       0       0       0       0       0       
      +0       0       0       0       0       0       0       0       0       0
  4185 ;;Total ram usage:       96 bytes
  4186 ;; Hardware stack levels required when called:    7
  4187 ;; This function calls:
  4188 ;;		_ADCC_GetSingleConversion
  4189 ;;		_EUSART_SetRxInterruptHandler
  4190 ;;		_EUSART_Write
  4191 ;;		_EUSART_is_tx_done
  4192 ;;		_SYSTEM_Initialize
  4193 ;;		_max_with_threshold
  4194 ;; This function is called by:
  4195 ;;		Startup code after reset
  4196 ;; This function uses a non-reentrant model
  4197 ;;
  4198                           
  4199                           
  4200                           ;psect for function _main
  4201  0058                     _main:	
  4202  0058                     l2120:	
  4203                           ;incstack = 0
  4204                           ; Regs used in _main: [wreg-fsr1h+status,2+status,0+pclath+cstack]
  4205                           
  4206                           
  4207                           ;main.c: 75:     unsigned int scan_max[18]={0};
  4208  0058  304A               	movlw	low main@scan_max
  4209  0059  0086               	movwf	6
  4210  005A  3000               	movlw	high main@scan_max
  4211  005B  0087               	movwf	7
  4212  005C  3024               	movlw	36
  4213  005D  0140               	movlb	0	; select bank0
  4214  005E  00A2               	movwf	??_main
  4215  005F  3000               	movlw	0
  4216  0060                     u810:	
  4217  0060  001E               	movwi fsr1++
  4218  0061  0BA2               	decfsz	??_main,f
  4219  0062  2860               	goto	u810
  4220                           
  4221                           ;main.c: 76:     unsigned int scan_max_prev[18]={0};
  4222  0063  3026               	movlw	low main@scan_max_prev
  4223  0064  0086               	movwf	6
  4224  0065  3000               	movlw	high main@scan_max_prev
  4225  0066  0087               	movwf	7
  4226  0067  3024               	movlw	36
  4227  0068  00A2               	movwf	??_main
  4228  0069  3000               	movlw	0
  4229  006A                     u820:	
  4230  006A  001E               	movwi fsr1++
  4231  006B  0BA2               	decfsz	??_main,f
  4232  006C  286A               	goto	u820
  4233  006D                     l2122:	
  4234  006D                     l2124:	
  4235                           
  4236                           ;main.c: 82:     }packet;;main.c: 83:     unsigned int IOvalue[4][2]={0x3FF,0,0x3FF,0,0x
      +                          3FF,0,0x3FF,0};
  4237  006D  30C6               	movlw	low main@F11816
  4238  006E  0086               	movwf	6
  4239  006F  3000               	movlw	high main@F11816
  4240  0070  0087               	movwf	7
  4241  0071  30B4               	movlw	low main@IOvalue
  4242  0072  0084               	movwf	4
  4243  0073  3000               	movlw	high main@IOvalue
  4244  0074  0085               	movwf	5
  4245  0075  3010               	movlw	16
  4246  0076  00A2               	movwf	??_main
  4247  0077                     u830:	
  4248  0077  0016               	moviw fsr1++
  4249  0078  001A               	movwi fsr0++
  4250  0079  0BA2               	decfsz	??_main,f
  4251  007A  2877               	goto	u830
  4252  007B                     l2126:	
  4253                           
  4254                           ;main.c: 86:     SYSTEM_Initialize();
  4255  007B  3184  243B  3180   	fcall	_SYSTEM_Initialize
  4256  007E                     l2128:	
  4257                           
  4258                           ;main.c: 87:     EUSART_SetRxInterruptHandler(UserRxInterruptHandler);
  4259  007E  3073               	movlw	low _UserRxInterruptHandler
  4260  007F  00F2               	movwf	EUSART_SetRxInterruptHandler@interruptHandler
  4261  0080  3002               	movlw	high _UserRxInterruptHandler
  4262  0081  00F3               	movwf	EUSART_SetRxInterruptHandler@interruptHandler+1
  4263  0082  3184  247E  3180   	fcall	_EUSART_SetRxInterruptHandler
  4264  0085                     l2130:	
  4265                           
  4266                           ;main.c: 93:     (INTCONbits.GIE = 1);
  4267  0085  178B               	bsf	11,7	;volatile
  4268  0086                     l2132:	
  4269                           
  4270                           ;main.c: 96:     (INTCONbits.PEIE = 1);
  4271  0086  170B               	bsf	11,6	;volatile
  4272  0087                     l2134:	
  4273                           
  4274                           ;main.c: 103:     if(PORTBbits.RB5==1){
  4275  0087  0140               	movlb	0	; select bank0
  4276  0088  1E8D               	btfss	13,5	;volatile
  4277  0089  288B               	goto	u841
  4278  008A  288C               	goto	u840
  4279  008B                     u841:	
  4280  008B  2894               	goto	l2140
  4281  008C                     u840:	
  4282  008C                     l2136:	
  4283                           
  4284                           ;main.c: 104:         IOvalue[1][1]=0;
  4285  008C  0141               	movlb	1	; select bank1
  4286  008D  01BA               	clrf	(main@IOvalue^(0+128)+6)
  4287  008E  01BB               	clrf	((main@IOvalue+1)^(0+128)+6)
  4288  008F                     l2138:	
  4289                           
  4290                           ;main.c: 105:         IOvalue[1][0]=1;
  4291  008F  3001               	movlw	1
  4292  0090  00B8               	movwf	(main@IOvalue^(0+128)+4)
  4293  0091  3000               	movlw	0
  4294  0092  00B9               	movwf	(main@IOvalue^(0+128)+5)
  4295                           
  4296                           ;main.c: 106:     }else{
  4297  0093  289B               	goto	l2144
  4298  0094                     l2140:	
  4299                           
  4300                           ;main.c: 107:         IOvalue[1][0]=0;
  4301  0094  0141               	movlb	1	; select bank1
  4302  0095  01B8               	clrf	(main@IOvalue^(0+128)+4)
  4303  0096  01B9               	clrf	((main@IOvalue+1)^(0+128)+4)
  4304  0097                     l2142:	
  4305                           
  4306                           ;main.c: 108:         IOvalue[1][1]=1;
  4307  0097  3001               	movlw	1
  4308  0098  00BA               	movwf	(main@IOvalue^(0+128)+6)
  4309  0099  3000               	movlw	0
  4310  009A  00BB               	movwf	(main@IOvalue^(0+128)+7)
  4311  009B                     l2144:	
  4312                           
  4313                           ;main.c: 111:     if(PORTBbits.RB6==1){
  4314  009B  0140               	movlb	0	; select bank0
  4315  009C  1F0D               	btfss	13,6	;volatile
  4316  009D  289F               	goto	u851
  4317  009E  28A0               	goto	u850
  4318  009F                     u851:	
  4319  009F  28A8               	goto	l2150
  4320  00A0                     u850:	
  4321  00A0                     l2146:	
  4322                           
  4323                           ;main.c: 112:         IOvalue[2][1]=0;
  4324  00A0  0141               	movlb	1	; select bank1
  4325  00A1  01BE               	clrf	(main@IOvalue^(0+128)+10)
  4326  00A2  01BF               	clrf	((main@IOvalue+1)^(0+128)+10)
  4327  00A3                     l2148:	
  4328                           
  4329                           ;main.c: 113:         IOvalue[2][0]=1;
  4330  00A3  3001               	movlw	1
  4331  00A4  00BC               	movwf	(main@IOvalue^(0+128)+8)
  4332  00A5  3000               	movlw	0
  4333  00A6  00BD               	movwf	(main@IOvalue^(0+128)+9)
  4334                           
  4335                           ;main.c: 114:     }else{
  4336  00A7  28AF               	goto	l2154
  4337  00A8                     l2150:	
  4338                           
  4339                           ;main.c: 115:         IOvalue[2][0]=0;
  4340  00A8  0141               	movlb	1	; select bank1
  4341  00A9  01BC               	clrf	(main@IOvalue^(0+128)+8)
  4342  00AA  01BD               	clrf	((main@IOvalue+1)^(0+128)+8)
  4343  00AB                     l2152:	
  4344                           
  4345                           ;main.c: 116:         IOvalue[2][1]=1;
  4346  00AB  3001               	movlw	1
  4347  00AC  00BE               	movwf	(main@IOvalue^(0+128)+10)
  4348  00AD  3000               	movlw	0
  4349  00AE  00BF               	movwf	(main@IOvalue^(0+128)+11)
  4350  00AF                     l2154:	
  4351                           
  4352                           ;main.c: 119:     if(PORTBbits.RB0==1){
  4353  00AF  0140               	movlb	0	; select bank0
  4354  00B0  1C0D               	btfss	13,0	;volatile
  4355  00B1  28B3               	goto	u861
  4356  00B2  28B4               	goto	u860
  4357  00B3                     u861:	
  4358  00B3  28BC               	goto	l2160
  4359  00B4                     u860:	
  4360  00B4                     l2156:	
  4361                           
  4362                           ;main.c: 120:         IOvalue[3][1]=0;
  4363  00B4  0141               	movlb	1	; select bank1
  4364  00B5  01C2               	clrf	(main@IOvalue^(0+128)+14)
  4365  00B6  01C3               	clrf	((main@IOvalue+1)^(0+128)+14)
  4366  00B7                     l2158:	
  4367                           
  4368                           ;main.c: 121:         IOvalue[3][0]=1;
  4369  00B7  3001               	movlw	1
  4370  00B8  00C0               	movwf	(main@IOvalue^(0+128)+12)
  4371  00B9  3000               	movlw	0
  4372  00BA  00C1               	movwf	(main@IOvalue^(0+128)+13)
  4373                           
  4374                           ;main.c: 122:     }else{
  4375  00BB  28C3               	goto	l2164
  4376  00BC                     l2160:	
  4377                           
  4378                           ;main.c: 123:         IOvalue[3][0]=0;
  4379  00BC  0141               	movlb	1	; select bank1
  4380  00BD  01C0               	clrf	(main@IOvalue^(0+128)+12)
  4381  00BE  01C1               	clrf	((main@IOvalue+1)^(0+128)+12)
  4382  00BF                     l2162:	
  4383                           
  4384                           ;main.c: 124:         IOvalue[3][1]=1;
  4385  00BF  3001               	movlw	1
  4386  00C0  00C2               	movwf	(main@IOvalue^(0+128)+14)
  4387  00C1  3000               	movlw	0
  4388  00C2  00C3               	movwf	(main@IOvalue^(0+128)+15)
  4389  00C3                     l2164:	
  4390                           
  4391                           ;main.c: 127:     if(PORTBbits.RB1==1){
  4392  00C3  0140               	movlb	0	; select bank0
  4393  00C4  1C8D               	btfss	13,1	;volatile
  4394  00C5  28C7               	goto	u871
  4395  00C6  28C8               	goto	u870
  4396  00C7                     u871:	
  4397  00C7  28D0               	goto	l2170
  4398  00C8                     u870:	
  4399  00C8                     l2166:	
  4400                           
  4401                           ;main.c: 128:         IOvalue[4][1]=0;
  4402  00C8  0141               	movlb	1	; select bank1
  4403  00C9  01C6               	clrf	(main@IOvalue^(0+128)+18)
  4404  00CA  01C7               	clrf	((main@IOvalue+1)^(0+128)+18)
  4405  00CB                     l2168:	
  4406                           
  4407                           ;main.c: 129:         IOvalue[4][0]=1;
  4408  00CB  3001               	movlw	1
  4409  00CC  00C4               	movwf	(main@IOvalue^(0+128)+16)
  4410  00CD  3000               	movlw	0
  4411  00CE  00C5               	movwf	(main@IOvalue^(0+128)+17)
  4412                           
  4413                           ;main.c: 130:     }else{
  4414  00CF  28D7               	goto	l2174
  4415  00D0                     l2170:	
  4416                           
  4417                           ;main.c: 131:         IOvalue[4][0]=0;
  4418  00D0  0141               	movlb	1	; select bank1
  4419  00D1  01C4               	clrf	(main@IOvalue^(0+128)+16)
  4420  00D2  01C5               	clrf	((main@IOvalue+1)^(0+128)+16)
  4421  00D3                     l2172:	
  4422                           
  4423                           ;main.c: 132:         IOvalue[4][1]=1;
  4424  00D3  3001               	movlw	1
  4425  00D4  00C6               	movwf	(main@IOvalue^(0+128)+18)
  4426  00D5  3000               	movlw	0
  4427  00D6  00C7               	movwf	(main@IOvalue^(0+128)+19)
  4428  00D7                     l2174:	
  4429                           
  4430                           ;main.c: 135:     if(PORTBbits.RB7==1){
  4431  00D7  0140               	movlb	0	; select bank0
  4432  00D8  1F8D               	btfss	13,7	;volatile
  4433  00D9  28DB               	goto	u881
  4434  00DA  28DC               	goto	u880
  4435  00DB                     u881:	
  4436  00DB  28E4               	goto	l2180
  4437  00DC                     u880:	
  4438  00DC                     l2176:	
  4439                           
  4440                           ;main.c: 136:         IOvalue[0][1]=0;
  4441  00DC  0141               	movlb	1	; select bank1
  4442  00DD  01B6               	clrf	(main@IOvalue^(0+128)+2)
  4443  00DE  01B7               	clrf	((main@IOvalue+1)^(0+128)+2)
  4444  00DF                     l2178:	
  4445                           
  4446                           ;main.c: 137:         IOvalue[0][0]=1;
  4447  00DF  3001               	movlw	1
  4448  00E0  00B4               	movwf	main@IOvalue^(0+128)
  4449  00E1  3000               	movlw	0
  4450  00E2  00B5               	movwf	(main@IOvalue^(0+128)+1)
  4451                           
  4452                           ;main.c: 138:     }else{
  4453  00E3  28EB               	goto	l2184
  4454  00E4                     l2180:	
  4455                           
  4456                           ;main.c: 139:         IOvalue[0][0]=0;
  4457  00E4  0141               	movlb	1	; select bank1
  4458  00E5  01B4               	clrf	main@IOvalue^(0+128)
  4459  00E6  01B5               	clrf	(main@IOvalue+1)^(0+128)
  4460  00E7                     l2182:	
  4461                           
  4462                           ;main.c: 140:         IOvalue[0][1]=1;
  4463  00E7  3001               	movlw	1
  4464  00E8  00B6               	movwf	(main@IOvalue^(0+128)+2)
  4465  00E9  3000               	movlw	0
  4466  00EA  00B7               	movwf	(main@IOvalue^(0+128)+3)
  4467  00EB                     l2184:	
  4468                           
  4469                           ;main.c: 144:     {;main.c: 145:         max_with_threshold(&scan_max[1], ADCC_GetSingle
      +                          Conversion(AN_KEY1));
  4470  00EB  3000               	movlw	0
  4471  00EC  3184  244B  3180   	fcall	_ADCC_GetSingleConversion
  4472  00EF  0873               	movf	?_ADCC_GetSingleConversion+1,w
  4473  00F0  00F7               	movwf	max_with_threshold@scan_buffer+1
  4474  00F1  0872               	movf	?_ADCC_GetSingleConversion,w
  4475  00F2  00F6               	movwf	max_with_threshold@scan_buffer
  4476  00F3  304C               	movlw	(low ((main@scan_max| 0+2)))& (0+255)
  4477  00F4  3183  23B1  3180   	fcall	_max_with_threshold
  4478  00F7                     l2186:	
  4479                           
  4480                           ;main.c: 146:         max_with_threshold(&scan_max[2], ADCC_GetSingleConversion(AN_KEY2)
      +                          );
  4481  00F7  3001               	movlw	1
  4482  00F8  3184  244B  3180   	fcall	_ADCC_GetSingleConversion
  4483  00FB  0873               	movf	?_ADCC_GetSingleConversion+1,w
  4484  00FC  00F7               	movwf	max_with_threshold@scan_buffer+1
  4485  00FD  0872               	movf	?_ADCC_GetSingleConversion,w
  4486  00FE  00F6               	movwf	max_with_threshold@scan_buffer
  4487  00FF  304E               	movlw	(low ((main@scan_max| 0+4)))& (0+255)
  4488  0100  3183  23B1  3180   	fcall	_max_with_threshold
  4489  0103                     l2188:	
  4490                           
  4491                           ;main.c: 147:         max_with_threshold(&scan_max[3], ADCC_GetSingleConversion(AN_KEY3)
      +                          );
  4492  0103  3004               	movlw	4
  4493  0104  3184  244B  3180   	fcall	_ADCC_GetSingleConversion
  4494  0107  0873               	movf	?_ADCC_GetSingleConversion+1,w
  4495  0108  00F7               	movwf	max_with_threshold@scan_buffer+1
  4496  0109  0872               	movf	?_ADCC_GetSingleConversion,w
  4497  010A  00F6               	movwf	max_with_threshold@scan_buffer
  4498  010B  3050               	movlw	(low ((main@scan_max| 0+6)))& (0+255)
  4499  010C  3183  23B1  3180   	fcall	_max_with_threshold
  4500  010F                     l2190:	
  4501                           
  4502                           ;main.c: 148:         max_with_threshold(&scan_max[4], ADCC_GetSingleConversion(AN_KEY4)
      +                          );
  4503  010F  3005               	movlw	5
  4504  0110  3184  244B  3180   	fcall	_ADCC_GetSingleConversion
  4505  0113  0873               	movf	?_ADCC_GetSingleConversion+1,w
  4506  0114  00F7               	movwf	max_with_threshold@scan_buffer+1
  4507  0115  0872               	movf	?_ADCC_GetSingleConversion,w
  4508  0116  00F6               	movwf	max_with_threshold@scan_buffer
  4509  0117  3052               	movlw	(low ((main@scan_max| 0+8)))& (0+255)
  4510  0118  3183  23B1  3180   	fcall	_max_with_threshold
  4511  011B                     l2192:	
  4512                           
  4513                           ;main.c: 149:         max_with_threshold(&scan_max[5], ADCC_GetSingleConversion(AN_KEY5)
      +                          );
  4514  011B  3007               	movlw	7
  4515  011C  3184  244B  3180   	fcall	_ADCC_GetSingleConversion
  4516  011F  0873               	movf	?_ADCC_GetSingleConversion+1,w
  4517  0120  00F7               	movwf	max_with_threshold@scan_buffer+1
  4518  0121  0872               	movf	?_ADCC_GetSingleConversion,w
  4519  0122  00F6               	movwf	max_with_threshold@scan_buffer
  4520  0123  3054               	movlw	(low ((main@scan_max| 0+10)))& (0+255)
  4521  0124  3183  23B1  3180   	fcall	_max_with_threshold
  4522  0127                     l2194:	
  4523                           
  4524                           ;main.c: 150:         max_with_threshold(&scan_max[6], ADCC_GetSingleConversion(AN_KEY6)
      +                          );
  4525  0127  3006               	movlw	6
  4526  0128  3184  244B  3180   	fcall	_ADCC_GetSingleConversion
  4527  012B  0873               	movf	?_ADCC_GetSingleConversion+1,w
  4528  012C  00F7               	movwf	max_with_threshold@scan_buffer+1
  4529  012D  0872               	movf	?_ADCC_GetSingleConversion,w
  4530  012E  00F6               	movwf	max_with_threshold@scan_buffer
  4531  012F  3056               	movlw	(low ((main@scan_max| 0+12)))& (0+255)
  4532  0130  3183  23B1  3180   	fcall	_max_with_threshold
  4533  0133                     l2196:	
  4534                           
  4535                           ;main.c: 151:         max_with_threshold(&scan_max[7], ADCC_GetSingleConversion(AN_KEY7)
      +                          );
  4536  0133  3010               	movlw	16
  4537  0134  3184  244B  3180   	fcall	_ADCC_GetSingleConversion
  4538  0137  0873               	movf	?_ADCC_GetSingleConversion+1,w
  4539  0138  00F7               	movwf	max_with_threshold@scan_buffer+1
  4540  0139  0872               	movf	?_ADCC_GetSingleConversion,w
  4541  013A  00F6               	movwf	max_with_threshold@scan_buffer
  4542  013B  3058               	movlw	(low ((main@scan_max| 0+14)))& (0+255)
  4543  013C  3183  23B1  3180   	fcall	_max_with_threshold
  4544  013F                     l2198:	
  4545                           
  4546                           ;main.c: 152:         max_with_threshold(&scan_max[8], ADCC_GetSingleConversion(AN_KEY8)
      +                          );
  4547  013F  3011               	movlw	17
  4548  0140  3184  244B  3180   	fcall	_ADCC_GetSingleConversion
  4549  0143  0873               	movf	?_ADCC_GetSingleConversion+1,w
  4550  0144  00F7               	movwf	max_with_threshold@scan_buffer+1
  4551  0145  0872               	movf	?_ADCC_GetSingleConversion,w
  4552  0146  00F6               	movwf	max_with_threshold@scan_buffer
  4553  0147  305A               	movlw	(low ((main@scan_max| 0+16)))& (0+255)
  4554  0148  3183  23B1  3180   	fcall	_max_with_threshold
  4555  014B                     l2200:	
  4556                           
  4557                           ;main.c: 153:         max_with_threshold(&scan_max[9], ADCC_GetSingleConversion(AN_KEY9)
      +                          );
  4558  014B  3012               	movlw	18
  4559  014C  3184  244B  3180   	fcall	_ADCC_GetSingleConversion
  4560  014F  0873               	movf	?_ADCC_GetSingleConversion+1,w
  4561  0150  00F7               	movwf	max_with_threshold@scan_buffer+1
  4562  0151  0872               	movf	?_ADCC_GetSingleConversion,w
  4563  0152  00F6               	movwf	max_with_threshold@scan_buffer
  4564  0153  305C               	movlw	(low ((main@scan_max| 0+18)))& (0+255)
  4565  0154  3183  23B1  3180   	fcall	_max_with_threshold
  4566  0157                     l2202:	
  4567                           
  4568                           ;main.c: 154:         max_with_threshold(&scan_max[10], ADCC_GetSingleConversion(AN_KEY1
      +                          0));
  4569  0157  3013               	movlw	19
  4570  0158  3184  244B  3180   	fcall	_ADCC_GetSingleConversion
  4571  015B  0873               	movf	?_ADCC_GetSingleConversion+1,w
  4572  015C  00F7               	movwf	max_with_threshold@scan_buffer+1
  4573  015D  0872               	movf	?_ADCC_GetSingleConversion,w
  4574  015E  00F6               	movwf	max_with_threshold@scan_buffer
  4575  015F  305E               	movlw	(low ((main@scan_max| 0+20)))& (0+255)
  4576  0160  3183  23B1  3180   	fcall	_max_with_threshold
  4577  0163                     l2204:	
  4578                           
  4579                           ;main.c: 155:         max_with_threshold(&scan_max[11], ADCC_GetSingleConversion(AN_KEY1
      +                          1));
  4580  0163  3014               	movlw	20
  4581  0164  3184  244B  3180   	fcall	_ADCC_GetSingleConversion
  4582  0167  0873               	movf	?_ADCC_GetSingleConversion+1,w
  4583  0168  00F7               	movwf	max_with_threshold@scan_buffer+1
  4584  0169  0872               	movf	?_ADCC_GetSingleConversion,w
  4585  016A  00F6               	movwf	max_with_threshold@scan_buffer
  4586  016B  3060               	movlw	(low ((main@scan_max| 0+22)))& (0+255)
  4587  016C  3183  23B1  3180   	fcall	_max_with_threshold
  4588  016F                     l2206:	
  4589                           
  4590                           ;main.c: 156:         max_with_threshold(&scan_max[12], ADCC_GetSingleConversion(AN_Fade
      +                          r1));
  4591  016F  300B               	movlw	11
  4592  0170  3184  244B  3180   	fcall	_ADCC_GetSingleConversion
  4593  0173  0873               	movf	?_ADCC_GetSingleConversion+1,w
  4594  0174  00F7               	movwf	max_with_threshold@scan_buffer+1
  4595  0175  0872               	movf	?_ADCC_GetSingleConversion,w
  4596  0176  00F6               	movwf	max_with_threshold@scan_buffer
  4597  0177  3062               	movlw	(low ((main@scan_max| 0+24)))& (0+255)
  4598  0178  3183  23B1  3180   	fcall	_max_with_threshold
  4599  017B                     l2208:	
  4600                           
  4601                           ;main.c: 157:         max_with_threshold(&scan_max[13], ADCC_GetSingleConversion(AN_Fade
      +                          r2));
  4602  017B  300C               	movlw	12
  4603  017C  3184  244B  3180   	fcall	_ADCC_GetSingleConversion
  4604  017F  0873               	movf	?_ADCC_GetSingleConversion+1,w
  4605  0180  00F7               	movwf	max_with_threshold@scan_buffer+1
  4606  0181  0872               	movf	?_ADCC_GetSingleConversion,w
  4607  0182  00F6               	movwf	max_with_threshold@scan_buffer
  4608  0183  3064               	movlw	(low ((main@scan_max| 0+26)))& (0+255)
  4609  0184  3183  23B1  3180   	fcall	_max_with_threshold
  4610  0187                     l2210:	
  4611                           
  4612                           ;main.c: 158:         max_with_threshold(&scan_max[14], IOvalue[1][PORTBbits.RB5]);
  4613  0187  0140               	movlb	0	; select bank0
  4614  0188  0E0D               	swapf	13,w	;volatile
  4615  0189  0C89               	rrf	9,f
  4616  018A  3901               	andlw	1
  4617  018B  0709               	addwf	9,w
  4618  018C  3E04               	addlw	4
  4619  018D  3EB4               	addlw	(low (main@IOvalue| 0))& (0+255)
  4620  018E  0086               	movwf	6
  4621  018F  0187               	clrf	7
  4622  0190  3F40               	moviw [0]fsr1
  4623  0191  00F6               	movwf	max_with_threshold@scan_buffer
  4624  0192  3F41               	moviw [1]fsr1
  4625  0193  00F7               	movwf	max_with_threshold@scan_buffer+1
  4626  0194  3066               	movlw	(low ((main@scan_max| 0+28)))& (0+255)
  4627  0195  3183  23B1  3180   	fcall	_max_with_threshold
  4628  0198                     l2212:	
  4629                           
  4630                           ;main.c: 159:         max_with_threshold(&scan_max[15], IOvalue[2][PORTBbits.RB6]);
  4631  0198  0140               	movlb	0	; select bank0
  4632  0199  0E0D               	swapf	13,w	;volatile
  4633  019A  0C89               	rrf	9,f
  4634  019B  0C89               	rrf	9,f
  4635  019C  3901               	andlw	1
  4636  019D  0709               	addwf	9,w
  4637  019E  3E08               	addlw	8
  4638  019F  3EB4               	addlw	(low (main@IOvalue| 0))& (0+255)
  4639  01A0  0086               	movwf	6
  4640  01A1  0187               	clrf	7
  4641  01A2  3F40               	moviw [0]fsr1
  4642  01A3  00F6               	movwf	max_with_threshold@scan_buffer
  4643  01A4  3F41               	moviw [1]fsr1
  4644  01A5  00F7               	movwf	max_with_threshold@scan_buffer+1
  4645  01A6  3068               	movlw	(low ((main@scan_max| 0+30)))& (0+255)
  4646  01A7  3183  23B1  3180   	fcall	_max_with_threshold
  4647  01AA                     l2214:	
  4648                           
  4649                           ;main.c: 160:         max_with_threshold(&scan_max[16], IOvalue[3][PORTBbits.RB0]);
  4650  01AA  0140               	movlb	0	; select bank0
  4651  01AB  080D               	movf	13,w	;volatile
  4652  01AC  3901               	andlw	1
  4653  01AD  0709               	addwf	9,w
  4654  01AE  3E0C               	addlw	12
  4655  01AF  3EB4               	addlw	(low (main@IOvalue| 0))& (0+255)
  4656  01B0  0086               	movwf	6
  4657  01B1  0187               	clrf	7
  4658  01B2  3F40               	moviw [0]fsr1
  4659  01B3  00F6               	movwf	max_with_threshold@scan_buffer
  4660  01B4  3F41               	moviw [1]fsr1
  4661  01B5  00F7               	movwf	max_with_threshold@scan_buffer+1
  4662  01B6  306A               	movlw	(low ((main@scan_max| 0+32)))& (0+255)
  4663  01B7  3183  23B1  3180   	fcall	_max_with_threshold
  4664  01BA                     l2216:	
  4665                           
  4666                           ;main.c: 161:         max_with_threshold(&scan_max[17], IOvalue[4][PORTBbits.RB1]);
  4667  01BA  0140               	movlb	0	; select bank0
  4668  01BB  0C0D               	rrf	13,w	;volatile
  4669  01BC  3901               	andlw	1
  4670  01BD  0709               	addwf	9,w
  4671  01BE  3E10               	addlw	16
  4672  01BF  3EB4               	addlw	(low (main@IOvalue| 0))& (0+255)
  4673  01C0  0086               	movwf	6
  4674  01C1  0187               	clrf	7
  4675  01C2  3F40               	moviw [0]fsr1
  4676  01C3  00F6               	movwf	max_with_threshold@scan_buffer
  4677  01C4  3F41               	moviw [1]fsr1
  4678  01C5  00F7               	movwf	max_with_threshold@scan_buffer+1
  4679  01C6  306C               	movlw	(low ((main@scan_max| 0+34)))& (0+255)
  4680  01C7  3183  23B1  3180   	fcall	_max_with_threshold
  4681  01CA                     l2218:	
  4682                           
  4683                           ;main.c: 162:         max_with_threshold(&scan_max[18], ADCC_GetSingleConversion(AN_Fade
      +                          r3));
  4684  01CA  300A               	movlw	10
  4685  01CB  3184  244B  3180   	fcall	_ADCC_GetSingleConversion
  4686  01CE  0873               	movf	?_ADCC_GetSingleConversion+1,w
  4687  01CF  00F7               	movwf	max_with_threshold@scan_buffer+1
  4688  01D0  0872               	movf	?_ADCC_GetSingleConversion,w
  4689  01D1  00F6               	movwf	max_with_threshold@scan_buffer
  4690  01D2  306E               	movlw	(low ((main@scan_max| 0+36)))& (0+255)
  4691  01D3  3183  23B1  3180   	fcall	_max_with_threshold
  4692  01D6                     l2220:	
  4693                           
  4694                           ;main.c: 163:         max_with_threshold(&scan_max[0], IOvalue[0][PORTBbits.RB7]);
  4695  01D6  0140               	movlb	0	; select bank0
  4696  01D7  0D0D               	rlf	13,w	;volatile
  4697  01D8  0D0D               	rlf	13,w	;volatile
  4698  01D9  3901               	andlw	1
  4699  01DA  0709               	addwf	9,w
  4700  01DB  3EB4               	addlw	(low (main@IOvalue| 0))& (0+255)
  4701  01DC  0086               	movwf	6
  4702  01DD  0187               	clrf	7
  4703  01DE  3F40               	moviw [0]fsr1
  4704  01DF  00F6               	movwf	max_with_threshold@scan_buffer
  4705  01E0  3F41               	moviw [1]fsr1
  4706  01E1  00F7               	movwf	max_with_threshold@scan_buffer+1
  4707  01E2  304A               	movlw	(low (main@scan_max| 0))& (0+255)
  4708  01E3  3183  23B1  3180   	fcall	_max_with_threshold
  4709  01E6                     l2222:	
  4710                           
  4711                           ;main.c: 165:         if (tx_request != 0)
  4712  01E6  0141               	movlb	1	; select bank1
  4713  01E7  0830               	movf	_tx_request^(0+128),w
  4714  01E8  1903               	btfsc	3,2
  4715  01E9  29EB               	goto	u891
  4716  01EA  29EC               	goto	u890
  4717  01EB                     u891:	
  4718  01EB  28EB               	goto	l2184
  4719  01EC                     u890:	
  4720  01EC                     l2224:	
  4721                           
  4722                           ;main.c: 166:         {;main.c: 167:           tx_request = 0;
  4723  01EC  01B0               	clrf	_tx_request^(0+128)
  4724  01ED                     l2226:	
  4725  01ED  0140               	movlb	0	; select bank0
  4726  01EE  1718               	bsf	24,6	;volatile
  4727  01EF                     l480:	
  4728                           
  4729                           ;main.c: 169:           for (i = 0; i < 18; i++)
  4730  01EF  0141               	movlb	1	; select bank1
  4731  01F0  01C4               	clrf	main@i^(0+128)
  4732  01F1  01C5               	clrf	(main@i+1)^(0+128)
  4733  01F2                     l2232:	
  4734                           
  4735                           ;main.c: 170:           {;main.c: 171:             if (scan_max_prev[i]!=scan_max[i])
  4736  01F2  3544               	lslf	main@i^(0+128),w
  4737  01F3  3E4A               	addlw	(low (main@scan_max| 0))& (0+255)
  4738  01F4  0086               	movwf	6
  4739  01F5  0187               	clrf	7
  4740  01F6  3F40               	moviw [0]fsr1
  4741  01F7  0140               	movlb	0	; select bank0
  4742  01F8  00A2               	movwf	??_main
  4743  01F9  3F41               	moviw [1]fsr1
  4744  01FA  00A3               	movwf	??_main+1
  4745  01FB  0141               	movlb	1	; select bank1
  4746  01FC  3544               	lslf	main@i^(0+128),w
  4747  01FD  3E26               	addlw	(low (main@scan_max_prev| 0))& (0+255)
  4748  01FE  0086               	movwf	6
  4749  01FF  0187               	clrf	7
  4750  0200  3F40               	moviw [0]fsr1
  4751  0201  0140               	movlb	0	; select bank0
  4752  0202  00A4               	movwf	??_main+2
  4753  0203  3F41               	moviw [1]fsr1
  4754  0204  00A5               	movwf	??_main+3
  4755  0205  0823               	movf	??_main+1,w
  4756  0206  0625               	xorwf	??_main+3,w
  4757  0207  1D03               	skipz
  4758  0208  2A0B               	goto	u905
  4759  0209  0822               	movf	??_main,w
  4760  020A  0624               	xorwf	??_main+2,w
  4761  020B                     u905:	
  4762  020B  1903               	skipnz
  4763  020C  2A0E               	goto	u901
  4764  020D  2A0F               	goto	u900
  4765  020E                     u901:	
  4766  020E  2A35               	goto	l2240
  4767  020F                     u900:	
  4768  020F                     l2234:	
  4769                           
  4770                           ;main.c: 172:             {;main.c: 173:               packet.twobyte = (i<<10) | scan_m
      +                          ax[i];
  4771  020F  0141               	movlb	1	; select bank1
  4772  0210  3544               	lslf	main@i^(0+128),w
  4773  0211  3E4A               	addlw	(low (main@scan_max| 0))& (0+255)
  4774  0212  0086               	movwf	6
  4775  0213  0187               	clrf	7
  4776  0214  3F40               	moviw [0]fsr1
  4777  0215  0140               	movlb	0	; select bank0
  4778  0216  00A2               	movwf	??_main
  4779  0217  3F41               	moviw [1]fsr1
  4780  0218  00A3               	movwf	??_main+1
  4781  0219  0141               	movlb	1	; select bank1
  4782  021A  0845               	movf	(main@i+1)^(0+128),w
  4783  021B  0140               	movlb	0	; select bank0
  4784  021C  00A5               	movwf	??_main+3
  4785  021D  0141               	movlb	1	; select bank1
  4786  021E  0844               	movf	main@i^(0+128),w
  4787  021F  0140               	movlb	0	; select bank0
  4788  0220  00A4               	movwf	??_main+2
  4789  0221  300A               	movlw	10
  4790  0222                     u915:	
  4791  0222  35A4               	lslf	??_main+2,f
  4792  0223  0DA5               	rlf	??_main+3,f
  4793  0224  0B89               	decfsz	9,f
  4794  0225  2A22               	goto	u915
  4795  0226  0822               	movf	??_main,w
  4796  0227  0424               	iorwf	??_main+2,w
  4797  0228  00EE               	movwf	main@packet
  4798  0229  0823               	movf	??_main+1,w
  4799  022A  0425               	iorwf	??_main+3,w
  4800  022B  00EF               	movwf	main@packet+1
  4801  022C                     l2236:	
  4802                           
  4803                           ;main.c: 174:               EUSART_Write(packet.bytes[0]);
  4804  022C  086E               	movf	main@packet,w
  4805  022D  3183  235C  3180   	fcall	_EUSART_Write
  4806  0230                     l2238:	
  4807                           
  4808                           ;main.c: 175:               EUSART_Write(packet.bytes[1]);
  4809  0230  0140               	movlb	0	; select bank0
  4810  0231  086F               	movf	main@packet+1,w
  4811  0232  3183  235C  3180   	fcall	_EUSART_Write
  4812  0235                     l2240:	
  4813                           
  4814                           ;main.c: 177:             scan_max_prev[i]=scan_max[i];
  4815  0235  0141               	movlb	1	; select bank1
  4816  0236  3544               	lslf	main@i^(0+128),w
  4817  0237  3E4A               	addlw	(low (main@scan_max| 0))& (0+255)
  4818  0238  0086               	movwf	6
  4819  0239  0187               	clrf	7
  4820  023A  3544               	lslf	main@i^(0+128),w
  4821  023B  3E26               	addlw	(low (main@scan_max_prev| 0))& (0+255)
  4822  023C  0084               	movwf	4
  4823  023D  0185               	clrf	5
  4824  023E  3F40               	moviw [0]fsr1
  4825  023F  3F80               	movwi [0]fsr0
  4826  0240  3F41               	moviw [1]fsr1
  4827  0241  3F81               	movwi [1]fsr0
  4828  0242                     l2242:	
  4829                           
  4830                           ;main.c: 178:             scan_max[i]= 0;
  4831  0242  3544               	lslf	main@i^(0+128),w
  4832  0243  3E4A               	addlw	(low (main@scan_max| 0))& (0+255)
  4833  0244  0086               	movwf	6
  4834  0245  0187               	clrf	7
  4835  0246  3000               	movlw	0
  4836  0247  3FC0               	movwi [0]fsr1
  4837  0248  3FC1               	movwi [1]fsr1
  4838  0249                     l2244:	
  4839                           
  4840                           ;main.c: 179:           }
  4841  0249  3001               	movlw	1
  4842  024A  07C4               	addwf	main@i^(0+128),f
  4843  024B  3000               	movlw	0
  4844  024C  3DC5               	addwfc	(main@i+1)^(0+128),f
  4845  024D                     l2246:	
  4846  024D  3000               	movlw	0
  4847  024E  0245               	subwf	(main@i+1)^(0+128),w
  4848  024F  3012               	movlw	18
  4849  0250  1903               	skipnz
  4850  0251  0244               	subwf	main@i^(0+128),w
  4851  0252  1C03               	skipc
  4852  0253  2A55               	goto	u921
  4853  0254  2A56               	goto	u920
  4854  0255                     u921:	
  4855  0255  29F2               	goto	l2232
  4856  0256                     u920:	
  4857  0256                     l2248:	
  4858  0256  3184  2496  3180   	fcall	_EUSART_is_tx_done
  4859  0259  3A00               	xorlw	0
  4860  025A  1903               	skipnz
  4861  025B  2A5D               	goto	u931
  4862  025C  2A5E               	goto	u930
  4863  025D                     u931:	
  4864  025D  2A56               	goto	l2248
  4865  025E                     u930:	
  4866  025E                     l486:	
  4867                           
  4868                           ;main.c: 183:           TX1STAbits.TX9D = 1;
  4869  025E  0142               	movlb	2	; select bank2
  4870  025F  141E               	bsf	30,0	;volatile
  4871  0260                     l2250:	
  4872                           
  4873                           ;main.c: 184:           EUSART_Write(0x7F);
  4874  0260  307F               	movlw	127
  4875  0261  3183  235C  3180   	fcall	_EUSART_Write
  4876  0264                     l2252:	
  4877                           ;main.c: 185:           while (!EUSART_is_tx_done());
  4878                           
  4879  0264  3184  2496  3180   	fcall	_EUSART_is_tx_done
  4880  0267  3A00               	xorlw	0
  4881  0268  1903               	skipnz
  4882  0269  2A6B               	goto	u941
  4883  026A  2A6C               	goto	u940
  4884  026B                     u941:	
  4885  026B  2A64               	goto	l2252
  4886  026C                     u940:	
  4887  026C                     l489:	
  4888                           
  4889                           ;main.c: 186:           TX1STAbits.TX9D = 0;
  4890  026C  0142               	movlb	2	; select bank2
  4891  026D  101E               	bcf	30,0	;volatile
  4892  026E                     l490:	
  4893                           ;main.c: 187:           do { LATCbits.LATC6 = 0; } while(0);
  4894                           
  4895  026E  0140               	movlb	0	; select bank0
  4896  026F  1318               	bcf	24,6	;volatile
  4897  0270  28EB               	goto	l2184
  4898  0271  3180  282B         	ljmp	start
  4899  0273                     __end_of_main:	
  4900                           
  4901                           	psect	text1
  4902  03B1                     __ptext1:	
  4903 ;; *************** function _max_with_threshold *****************
  4904 ;; Defined at:
  4905 ;;		line 223 in file "main.c"
  4906 ;; Parameters:    Size  Location     Type
  4907 ;;  scan_max        1    wreg     PTR unsigned int 
  4908 ;;		 -> main@scan_max(36), 
  4909 ;;  scan_buffer     2    6[COMMON] unsigned int 
  4910 ;; Auto vars:     Size  Location     Type
  4911 ;;  scan_max        1    8[COMMON] PTR unsigned int 
  4912 ;;		 -> main@scan_max(36), 
  4913 ;; Return value:  Size  Location     Type
  4914 ;;                  1    wreg      void 
  4915 ;; Registers used:
  4916 ;;		wreg, fsr1l, fsr1h
  4917 ;; Tracked objects:
  4918 ;;		On entry : 0/0
  4919 ;;		On exit  : 0/0
  4920 ;;		Unchanged: 0/0
  4921 ;; Data sizes:     COMMON   BANK0   BANK1   BANK2   BANK3   BANK4   BANK5   BANK6   BANK7   BANK8   BANK9  BANK10  BANK1
      +1  BANK12  BANK13  BANK14  BANK15  BANK16  BANK17  BANK18  BANK19  BANK20  BANK21  BANK22  BANK23  BANK24  BANK25  BANK2
      +6  BANK27  BANK28  BANK29  BANK30  BANK31  BANK32  BANK33  BANK34  BANK35  BANK36  BANK37  BANK38  BANK39  BANK40  BANK4
      +1  BANK42  BANK43  BANK44  BANK45  BANK46  BANK47  BANK48  BANK49  BANK50
  4922 ;;      Params:         2       0       0       0       0       0       0       0       0       0       0       0       
      +0       0       0       0       0       0       0       0       0       0       0       0       0       0       0       
      +0       0       0       0       0       0       0       0       0       0       0       0       0       0       0       
      +0       0       0       0       0       0       0       0       0       0
  4923 ;;      Locals:         1       0       0       0       0       0       0       0       0       0       0       0       
      +0       0       0       0       0       0       0       0       0       0       0       0       0       0       0       
      +0       0       0       0       0       0       0       0       0       0       0       0       0       0       0       
      +0       0       0       0       0       0       0       0       0       0
  4924 ;;      Temps:          0       2       0       0       0       0       0       0       0       0       0       0       
      +0       0       0       0       0       0       0       0       0       0       0       0       0       0       0       
      +0       0       0       0       0       0       0       0       0       0       0       0       0       0       0       
      +0       0       0       0       0       0       0       0       0       0
  4925 ;;      Totals:         3       2       0       0       0       0       0       0       0       0       0       0       
      +0       0       0       0       0       0       0       0       0       0       0       0       0       0       0       
      +0       0       0       0       0       0       0       0       0       0       0       0       0       0       0       
      +0       0       0       0       0       0       0       0       0       0
  4926 ;;Total ram usage:        5 bytes
  4927 ;; Hardware stack levels used:    1
  4928 ;; Hardware stack levels required when called:    4
  4929 ;; This function calls:
  4930 ;;		Nothing
  4931 ;; This function is called by:
  4932 ;;		_main
  4933 ;; This function uses a non-reentrant model
  4934 ;;
  4935                           
  4936                           
  4937                           ;psect for function _max_with_threshold
  4938  03B1                     _max_with_threshold:	
  4939                           
  4940                           ;incstack = 0
  4941                           ; Regs used in _max_with_threshold: [wregfsr1]
  4942                           ;max_with_threshold@scan_max stored from wreg
  4943  03B1  00F8               	movwf	max_with_threshold@scan_max
  4944  03B2                     l2112:	
  4945                           
  4946                           ;main.c: 224:   if (*scan_max < scan_buffer && scan_buffer >= 4)
  4947  03B2  0878               	movf	max_with_threshold@scan_max,w
  4948  03B3  0086               	movwf	6
  4949  03B4  0187               	clrf	7
  4950  03B5  3F40               	moviw [0]fsr1
  4951  03B6  0140               	movlb	0	; select bank0
  4952  03B7  00A0               	movwf	??_max_with_threshold
  4953  03B8  3F41               	moviw [1]fsr1
  4954  03B9  00A1               	movwf	??_max_with_threshold+1
  4955  03BA  0877               	movf	max_with_threshold@scan_buffer+1,w
  4956  03BB  0221               	subwf	??_max_with_threshold+1,w
  4957  03BC  1D03               	skipz
  4958  03BD  2BC0               	goto	u795
  4959  03BE  0876               	movf	max_with_threshold@scan_buffer,w
  4960  03BF  0220               	subwf	??_max_with_threshold,w
  4961  03C0                     u795:	
  4962  03C0  1803               	skipnc
  4963  03C1  2BC3               	goto	u791
  4964  03C2  2BC4               	goto	u790
  4965  03C3                     u791:	
  4966  03C3  2BD4               	goto	l506
  4967  03C4                     u790:	
  4968  03C4                     l2114:	
  4969  03C4  3000               	movlw	0
  4970  03C5  0277               	subwf	max_with_threshold@scan_buffer+1,w
  4971  03C6  3004               	movlw	4
  4972  03C7  1903               	skipnz
  4973  03C8  0276               	subwf	max_with_threshold@scan_buffer,w
  4974  03C9  1C03               	skipc
  4975  03CA  2BCC               	goto	u801
  4976  03CB  2BCD               	goto	u800
  4977  03CC                     u801:	
  4978  03CC  2BD4               	goto	l506
  4979  03CD                     u800:	
  4980  03CD                     l2116:	
  4981                           
  4982                           ;main.c: 225:   {;main.c: 226:     *scan_max = scan_buffer;
  4983  03CD  0878               	movf	max_with_threshold@scan_max,w
  4984  03CE  0086               	movwf	6
  4985  03CF  0187               	clrf	7
  4986  03D0  0876               	movf	max_with_threshold@scan_buffer,w
  4987  03D1  3FC0               	movwi [0]fsr1
  4988  03D2  0877               	movf	max_with_threshold@scan_buffer+1,w
  4989  03D3  3FC1               	movwi [1]fsr1
  4990  03D4                     l506:	
  4991  03D4  0008               	return
  4992  03D5                     __end_of_max_with_threshold:	
  4993                           
  4994                           	psect	text2
  4995  043B                     __ptext2:	
  4996 ;; *************** function _SYSTEM_Initialize *****************
  4997 ;; Defined at:
  4998 ;;		line 50 in file "mcc_generated_files/mcc.c"
  4999 ;; Parameters:    Size  Location     Type
  5000 ;;		None
  5001 ;; Auto vars:     Size  Location     Type
  5002 ;;		None
  5003 ;; Return value:  Size  Location     Type
  5004 ;;                  1    wreg      void 
  5005 ;; Registers used:
  5006 ;;		wreg, status,2, status,0, pclath, cstack
  5007 ;; Tracked objects:
  5008 ;;		On entry : 0/0
  5009 ;;		On exit  : 0/0
  5010 ;;		Unchanged: 0/0
  5011 ;; Data sizes:     COMMON   BANK0   BANK1   BANK2   BANK3   BANK4   BANK5   BANK6   BANK7   BANK8   BANK9  BANK10  BANK1
      +1  BANK12  BANK13  BANK14  BANK15  BANK16  BANK17  BANK18  BANK19  BANK20  BANK21  BANK22  BANK23  BANK24  BANK25  BANK2
      +6  BANK27  BANK28  BANK29  BANK30  BANK31  BANK32  BANK33  BANK34  BANK35  BANK36  BANK37  BANK38  BANK39  BANK40  BANK4
      +1  BANK42  BANK43  BANK44  BANK45  BANK46  BANK47  BANK48  BANK49  BANK50
  5012 ;;      Params:         0       0       0       0       0       0       0       0       0       0       0       0       
      +0       0       0       0       0       0       0       0       0       0       0       0       0       0       0       
      +0       0       0       0       0       0       0       0       0       0       0       0       0       0       0       
      +0       0       0       0       0       0       0       0       0       0
  5013 ;;      Locals:         0       0       0       0       0       0       0       0       0       0       0       0       
      +0       0       0       0       0       0       0       0       0       0       0       0       0       0       0       
      +0       0       0       0       0       0       0       0       0       0       0       0       0       0       0       
      +0       0       0       0       0       0       0       0       0       0
  5014 ;;      Temps:          0       0       0       0       0       0       0       0       0       0       0       0       
      +0       0       0       0       0       0       0       0       0       0       0       0       0       0       0       
      +0       0       0       0       0       0       0       0       0       0       0       0       0       0       0       
      +0       0       0       0       0       0       0       0       0       0
  5015 ;;      Totals:         0       0       0       0       0       0       0       0       0       0       0       0       
      +0       0       0       0       0       0       0       0       0       0       0       0       0       0       0       
      +0       0       0       0       0       0       0       0       0       0       0       0       0       0       0       
      +0       0       0       0       0       0       0       0       0       0
  5016 ;;Total ram usage:        0 bytes
  5017 ;; Hardware stack levels used:    1
  5018 ;; Hardware stack levels required when called:    6
  5019 ;; This function calls:
  5020 ;;		_ADCC_Initialize
  5021 ;;		_EUSART_Initialize
  5022 ;;		_OSCILLATOR_Initialize
  5023 ;;		_PIN_MANAGER_Initialize
  5024 ;;		_PMD_Initialize
  5025 ;; This function is called by:
  5026 ;;		_main
  5027 ;; This function uses a non-reentrant model
  5028 ;;
  5029                           
  5030                           
  5031                           ;psect for function _SYSTEM_Initialize
  5032  043B                     _SYSTEM_Initialize:	
  5033  043B                     l2102:	
  5034                           ;incstack = 0
  5035                           ; Regs used in _SYSTEM_Initialize: [wreg+status,2+status,0+pclath+cstack]
  5036                           
  5037                           
  5038                           ;mcc_generated_files/mcc.c: 52:     PMD_Initialize();
  5039  043B  3184  2464  3184   	fcall	_PMD_Initialize
  5040  043E                     l2104:	
  5041                           
  5042                           ;mcc_generated_files/mcc.c: 53:     PIN_MANAGER_Initialize();
  5043  043E  3183  232F  3184   	fcall	_PIN_MANAGER_Initialize
  5044  0441                     l2106:	
  5045                           
  5046                           ;mcc_generated_files/mcc.c: 54:     OSCILLATOR_Initialize();
  5047  0441  3184  245B  3184   	fcall	_OSCILLATOR_Initialize
  5048  0444                     l2108:	
  5049                           
  5050                           ;mcc_generated_files/mcc.c: 55:     ADCC_Initialize();
  5051  0444  3184  2412  3184   	fcall	_ADCC_Initialize
  5052  0447                     l2110:	
  5053                           
  5054                           ;mcc_generated_files/mcc.c: 56:     EUSART_Initialize();
  5055  0447  3182  22B7  3184   	fcall	_EUSART_Initialize
  5056  044A                     l354:	
  5057  044A  0008               	return
  5058  044B                     __end_of_SYSTEM_Initialize:	
  5059                           
  5060                           	psect	text3
  5061  0464                     __ptext3:	
  5062 ;; *************** function _PMD_Initialize *****************
  5063 ;; Defined at:
  5064 ;;		line 73 in file "mcc_generated_files/mcc.c"
  5065 ;; Parameters:    Size  Location     Type
  5066 ;;		None
  5067 ;; Auto vars:     Size  Location     Type
  5068 ;;		None
  5069 ;; Return value:  Size  Location     Type
  5070 ;;                  1    wreg      void 
  5071 ;; Registers used:
  5072 ;;		status,2
  5073 ;; Tracked objects:
  5074 ;;		On entry : 0/0
  5075 ;;		On exit  : 0/0
  5076 ;;		Unchanged: 0/0
  5077 ;; Data sizes:     COMMON   BANK0   BANK1   BANK2   BANK3   BANK4   BANK5   BANK6   BANK7   BANK8   BANK9  BANK10  BANK1
      +1  BANK12  BANK13  BANK14  BANK15  BANK16  BANK17  BANK18  BANK19  BANK20  BANK21  BANK22  BANK23  BANK24  BANK25  BANK2
      +6  BANK27  BANK28  BANK29  BANK30  BANK31  BANK32  BANK33  BANK34  BANK35  BANK36  BANK37  BANK38  BANK39  BANK40  BANK4
      +1  BANK42  BANK43  BANK44  BANK45  BANK46  BANK47  BANK48  BANK49  BANK50
  5078 ;;      Params:         0       0       0       0       0       0       0       0       0       0       0       0       
      +0       0       0       0       0       0       0       0       0       0       0       0       0       0       0       
      +0       0       0       0       0       0       0       0       0       0       0       0       0       0       0       
      +0       0       0       0       0       0       0       0       0       0
  5079 ;;      Locals:         0       0       0       0       0       0       0       0       0       0       0       0       
      +0       0       0       0       0       0       0       0       0       0       0       0       0       0       0       
      +0       0       0       0       0       0       0       0       0       0       0       0       0       0       0       
      +0       0       0       0       0       0       0       0       0       0
  5080 ;;      Temps:          0       0       0       0       0       0       0       0       0       0       0       0       
      +0       0       0       0       0       0       0       0       0       0       0       0       0       0       0       
      +0       0       0       0       0       0       0       0       0       0       0       0       0       0       0       
      +0       0       0       0       0       0       0       0       0       0
  5081 ;;      Totals:         0       0       0       0       0       0       0       0       0       0       0       0       
      +0       0       0       0       0       0       0       0       0       0       0       0       0       0       0       
      +0       0       0       0       0       0       0       0       0       0       0       0       0       0       0       
      +0       0       0       0       0       0       0       0       0       0
  5082 ;;Total ram usage:        0 bytes
  5083 ;; Hardware stack levels used:    1
  5084 ;; Hardware stack levels required when called:    4
  5085 ;; This function calls:
  5086 ;;		Nothing
  5087 ;; This function is called by:
  5088 ;;		_SYSTEM_Initialize
  5089 ;; This function uses a non-reentrant model
  5090 ;;
  5091                           
  5092                           
  5093                           ;psect for function _PMD_Initialize
  5094  0464                     _PMD_Initialize:	
  5095  0464                     l2026:	
  5096                           ;incstack = 0
  5097                           ; Regs used in _PMD_Initialize: [status,2]
  5098                           
  5099                           
  5100                           ;mcc_generated_files/mcc.c: 76:     PMD0 = 0x00;
  5101  0464  014F               	movlb	15	; select bank15
  5102  0465  0196               	clrf	22	;volatile
  5103                           
  5104                           ;mcc_generated_files/mcc.c: 78:     PMD1 = 0x00;
  5105  0466  0197               	clrf	23	;volatile
  5106                           
  5107                           ;mcc_generated_files/mcc.c: 80:     PMD2 = 0x00;
  5108  0467  0198               	clrf	24	;volatile
  5109                           
  5110                           ;mcc_generated_files/mcc.c: 82:     PMD3 = 0x00;
  5111  0468  0199               	clrf	25	;volatile
  5112                           
  5113                           ;mcc_generated_files/mcc.c: 84:     PMD4 = 0x00;
  5114  0469  019A               	clrf	26	;volatile
  5115                           
  5116                           ;mcc_generated_files/mcc.c: 86:     PMD5 = 0x00;
  5117  046A  019B               	clrf	27	;volatile
  5118  046B                     l360:	
  5119  046B  0008               	return
  5120  046C                     __end_of_PMD_Initialize:	
  5121                           
  5122                           	psect	text4
  5123  032F                     __ptext4:	
  5124 ;; *************** function _PIN_MANAGER_Initialize *****************
  5125 ;; Defined at:
  5126 ;;		line 55 in file "mcc_generated_files/pin_manager.c"
  5127 ;; Parameters:    Size  Location     Type
  5128 ;;		None
  5129 ;; Auto vars:     Size  Location     Type
  5130 ;;		None
  5131 ;; Return value:  Size  Location     Type
  5132 ;;                  1    wreg      void 
  5133 ;; Registers used:
  5134 ;;		wreg, status,2
  5135 ;; Tracked objects:
  5136 ;;		On entry : 0/0
  5137 ;;		On exit  : 0/0
  5138 ;;		Unchanged: 0/0
  5139 ;; Data sizes:     COMMON   BANK0   BANK1   BANK2   BANK3   BANK4   BANK5   BANK6   BANK7   BANK8   BANK9  BANK10  BANK1
      +1  BANK12  BANK13  BANK14  BANK15  BANK16  BANK17  BANK18  BANK19  BANK20  BANK21  BANK22  BANK23  BANK24  BANK25  BANK2
      +6  BANK27  BANK28  BANK29  BANK30  BANK31  BANK32  BANK33  BANK34  BANK35  BANK36  BANK37  BANK38  BANK39  BANK40  BANK4
      +1  BANK42  BANK43  BANK44  BANK45  BANK46  BANK47  BANK48  BANK49  BANK50
  5140 ;;      Params:         0       0       0       0       0       0       0       0       0       0       0       0       
      +0       0       0       0       0       0       0       0       0       0       0       0       0       0       0       
      +0       0       0       0       0       0       0       0       0       0       0       0       0       0       0       
      +0       0       0       0       0       0       0       0       0       0
  5141 ;;      Locals:         0       0       0       0       0       0       0       0       0       0       0       0       
      +0       0       0       0       0       0       0       0       0       0       0       0       0       0       0       
      +0       0       0       0       0       0       0       0       0       0       0       0       0       0       0       
      +0       0       0       0       0       0       0       0       0       0
  5142 ;;      Temps:          0       0       0       0       0       0       0       0       0       0       0       0       
      +0       0       0       0       0       0       0       0       0       0       0       0       0       0       0       
      +0       0       0       0       0       0       0       0       0       0       0       0       0       0       0       
      +0       0       0       0       0       0       0       0       0       0
  5143 ;;      Totals:         0       0       0       0       0       0       0       0       0       0       0       0       
      +0       0       0       0       0       0       0       0       0       0       0       0       0       0       0       
      +0       0       0       0       0       0       0       0       0       0       0       0       0       0       0       
      +0       0       0       0       0       0       0       0       0       0
  5144 ;;Total ram usage:        0 bytes
  5145 ;; Hardware stack levels used:    1
  5146 ;; Hardware stack levels required when called:    4
  5147 ;; This function calls:
  5148 ;;		Nothing
  5149 ;; This function is called by:
  5150 ;;		_SYSTEM_Initialize
  5151 ;; This function uses a non-reentrant model
  5152 ;;
  5153                           
  5154                           
  5155                           ;psect for function _PIN_MANAGER_Initialize
  5156  032F                     _PIN_MANAGER_Initialize:	
  5157  032F                     l2028:	
  5158                           ;incstack = 0
  5159                           ; Regs used in _PIN_MANAGER_Initialize: [wreg+status,2]
  5160                           
  5161                           
  5162                           ;mcc_generated_files/pin_manager.c: 60:     LATA = 0x00;
  5163  032F  0140               	movlb	0	; select bank0
  5164  0330  0196               	clrf	22	;volatile
  5165                           
  5166                           ;mcc_generated_files/pin_manager.c: 61:     LATB = 0x00;
  5167  0331  0197               	clrf	23	;volatile
  5168                           
  5169                           ;mcc_generated_files/pin_manager.c: 62:     LATC = 0x00;
  5170  0332  0198               	clrf	24	;volatile
  5171  0333                     l2030:	
  5172                           
  5173                           ;mcc_generated_files/pin_manager.c: 67:     TRISA = 0xFF;
  5174  0333  30FF               	movlw	255
  5175  0334  0091               	movwf	17	;volatile
  5176  0335                     l2032:	
  5177                           
  5178                           ;mcc_generated_files/pin_manager.c: 68:     TRISB = 0xFF;
  5179  0335  30FF               	movlw	255
  5180  0336  0092               	movwf	18	;volatile
  5181  0337                     l2034:	
  5182                           
  5183                           ;mcc_generated_files/pin_manager.c: 69:     TRISC = 0x9F;
  5184  0337  309F               	movlw	159
  5185  0338  0093               	movwf	19	;volatile
  5186  0339                     l2036:	
  5187                           
  5188                           ;mcc_generated_files/pin_manager.c: 74:     ANSELC = 0x7F;
  5189  0339  307F               	movlw	127
  5190  033A  017E               	movlb	62	; select bank62
  5191  033B  00CE               	movwf	78	;volatile
  5192  033C                     l2038:	
  5193                           
  5194                           ;mcc_generated_files/pin_manager.c: 75:     ANSELB = 0x1C;
  5195  033C  301C               	movlw	28
  5196  033D  00C3               	movwf	67	;volatile
  5197  033E                     l2040:	
  5198                           
  5199                           ;mcc_generated_files/pin_manager.c: 76:     ANSELA = 0xFF;
  5200  033E  30FF               	movlw	255
  5201  033F  00B8               	movwf	56	;volatile
  5202                           
  5203                           ;mcc_generated_files/pin_manager.c: 81:     WPUE = 0x00;
  5204  0340  01E5               	clrf	101	;volatile
  5205  0341                     l2042:	
  5206                           
  5207                           ;mcc_generated_files/pin_manager.c: 82:     WPUB = 0xE7;
  5208  0341  30E7               	movlw	231
  5209  0342  00C4               	movwf	68	;volatile
  5210  0343                     l2044:	
  5211                           
  5212                           ;mcc_generated_files/pin_manager.c: 83:     WPUA = 0x00;
  5213  0343  01B9               	clrf	57	;volatile
  5214  0344                     l2046:	
  5215                           
  5216                           ;mcc_generated_files/pin_manager.c: 84:     WPUC = 0x00;
  5217  0344  01CF               	clrf	79	;volatile
  5218  0345                     l2048:	
  5219                           
  5220                           ;mcc_generated_files/pin_manager.c: 89:     ODCONA = 0x00;
  5221  0345  01BA               	clrf	58	;volatile
  5222  0346                     l2050:	
  5223                           
  5224                           ;mcc_generated_files/pin_manager.c: 90:     ODCONB = 0x00;
  5225  0346  01C5               	clrf	69	;volatile
  5226  0347                     l2052:	
  5227                           
  5228                           ;mcc_generated_files/pin_manager.c: 91:     ODCONC = 0x00;
  5229  0347  01D0               	clrf	80	;volatile
  5230                           
  5231                           ;mcc_generated_files/pin_manager.c: 96:     SLRCONA = 0xFF;
  5232  0348  30FF               	movlw	255
  5233  0349  00BB               	movwf	59	;volatile
  5234                           
  5235                           ;mcc_generated_files/pin_manager.c: 97:     SLRCONB = 0xFF;
  5236  034A  30FF               	movlw	255
  5237  034B  00C6               	movwf	70	;volatile
  5238                           
  5239                           ;mcc_generated_files/pin_manager.c: 98:     SLRCONC = 0xFF;
  5240  034C  30FF               	movlw	255
  5241  034D  00D1               	movwf	81	;volatile
  5242                           
  5243                           ;mcc_generated_files/pin_manager.c: 103:     INLVLA = 0xFF;
  5244  034E  30FF               	movlw	255
  5245  034F  00BC               	movwf	60	;volatile
  5246                           
  5247                           ;mcc_generated_files/pin_manager.c: 104:     INLVLB = 0xFF;
  5248  0350  30FF               	movlw	255
  5249  0351  00C7               	movwf	71	;volatile
  5250                           
  5251                           ;mcc_generated_files/pin_manager.c: 105:     INLVLC = 0xFF;
  5252  0352  30FF               	movlw	255
  5253  0353  00D2               	movwf	82	;volatile
  5254  0354                     l2054:	
  5255                           
  5256                           ;mcc_generated_files/pin_manager.c: 106:     INLVLE = 0x00;
  5257  0354  01E8               	clrf	104	;volatile
  5258  0355                     l2056:	
  5259                           
  5260                           ;mcc_generated_files/pin_manager.c: 115:     RXPPS = 0x17;
  5261  0355  3017               	movlw	23
  5262  0356  017D               	movlb	61	; select bank61
  5263  0357  00CB               	movwf	75	;volatile
  5264  0358                     l2058:	
  5265                           
  5266                           ;mcc_generated_files/pin_manager.c: 116:     RC5PPS = 0x10;
  5267  0358  3010               	movlw	16
  5268  0359  017E               	movlb	62	; select bank62
  5269  035A  00A5               	movwf	37	;volatile
  5270  035B                     l413:	
  5271  035B  0008               	return
  5272  035C                     __end_of_PIN_MANAGER_Initialize:	
  5273                           
  5274                           	psect	text5
  5275  045B                     __ptext5:	
  5276 ;; *************** function _OSCILLATOR_Initialize *****************
  5277 ;; Defined at:
  5278 ;;		line 59 in file "mcc_generated_files/mcc.c"
  5279 ;; Parameters:    Size  Location     Type
  5280 ;;		None
  5281 ;; Auto vars:     Size  Location     Type
  5282 ;;		None
  5283 ;; Return value:  Size  Location     Type
  5284 ;;                  1    wreg      void 
  5285 ;; Registers used:
  5286 ;;		wreg, status,2
  5287 ;; Tracked objects:
  5288 ;;		On entry : 0/0
  5289 ;;		On exit  : 0/0
  5290 ;;		Unchanged: 0/0
  5291 ;; Data sizes:     COMMON   BANK0   BANK1   BANK2   BANK3   BANK4   BANK5   BANK6   BANK7   BANK8   BANK9  BANK10  BANK1
      +1  BANK12  BANK13  BANK14  BANK15  BANK16  BANK17  BANK18  BANK19  BANK20  BANK21  BANK22  BANK23  BANK24  BANK25  BANK2
      +6  BANK27  BANK28  BANK29  BANK30  BANK31  BANK32  BANK33  BANK34  BANK35  BANK36  BANK37  BANK38  BANK39  BANK40  BANK4
      +1  BANK42  BANK43  BANK44  BANK45  BANK46  BANK47  BANK48  BANK49  BANK50
  5292 ;;      Params:         0       0       0       0       0       0       0       0       0       0       0       0       
      +0       0       0       0       0       0       0       0       0       0       0       0       0       0       0       
      +0       0       0       0       0       0       0       0       0       0       0       0       0       0       0       
      +0       0       0       0       0       0       0       0       0       0
  5293 ;;      Locals:         0       0       0       0       0       0       0       0       0       0       0       0       
      +0       0       0       0       0       0       0       0       0       0       0       0       0       0       0       
      +0       0       0       0       0       0       0       0       0       0       0       0       0       0       0       
      +0       0       0       0       0       0       0       0       0       0
  5294 ;;      Temps:          0       0       0       0       0       0       0       0       0       0       0       0       
      +0       0       0       0       0       0       0       0       0       0       0       0       0       0       0       
      +0       0       0       0       0       0       0       0       0       0       0       0       0       0       0       
      +0       0       0       0       0       0       0       0       0       0
  5295 ;;      Totals:         0       0       0       0       0       0       0       0       0       0       0       0       
      +0       0       0       0       0       0       0       0       0       0       0       0       0       0       0       
      +0       0       0       0       0       0       0       0       0       0       0       0       0       0       0       
      +0       0       0       0       0       0       0       0       0       0
  5296 ;;Total ram usage:        0 bytes
  5297 ;; Hardware stack levels used:    1
  5298 ;; Hardware stack levels required when called:    4
  5299 ;; This function calls:
  5300 ;;		Nothing
  5301 ;; This function is called by:
  5302 ;;		_SYSTEM_Initialize
  5303 ;; This function uses a non-reentrant model
  5304 ;;
  5305                           
  5306                           
  5307                           ;psect for function _OSCILLATOR_Initialize
  5308  045B                     _OSCILLATOR_Initialize:	
  5309  045B                     l2060:	
  5310                           ;incstack = 0
  5311                           ; Regs used in _OSCILLATOR_Initialize: [wreg+status,2]
  5312                           
  5313                           
  5314                           ;mcc_generated_files/mcc.c: 62:     OSCCON1 = 0x60;
  5315  045B  3060               	movlw	96
  5316  045C  0151               	movlb	17	; select bank17
  5317  045D  008D               	movwf	13	;volatile
  5318  045E                     l2062:	
  5319                           
  5320                           ;mcc_generated_files/mcc.c: 64:     OSCCON3 = 0x00;
  5321  045E  018F               	clrf	15	;volatile
  5322  045F                     l2064:	
  5323                           
  5324                           ;mcc_generated_files/mcc.c: 66:     OSCEN = 0x00;
  5325  045F  0191               	clrf	17	;volatile
  5326                           
  5327                           ;mcc_generated_files/mcc.c: 68:     OSCFRQ = 0x01;
  5328  0460  3001               	movlw	1
  5329  0461  0093               	movwf	19	;volatile
  5330  0462                     l2066:	
  5331                           
  5332                           ;mcc_generated_files/mcc.c: 70:     OSCTUNE = 0x00;
  5333  0462  0192               	clrf	18	;volatile
  5334  0463                     l357:	
  5335  0463  0008               	return
  5336  0464                     __end_of_OSCILLATOR_Initialize:	
  5337                           
  5338                           	psect	text6
  5339  02B7                     __ptext6:	
  5340 ;; *************** function _EUSART_Initialize *****************
  5341 ;; Defined at:
  5342 ;;		line 88 in file "mcc_generated_files/eusart.c"
  5343 ;; Parameters:    Size  Location     Type
  5344 ;;		None
  5345 ;; Auto vars:     Size  Location     Type
  5346 ;;		None
  5347 ;; Return value:  Size  Location     Type
  5348 ;;                  1    wreg      void 
  5349 ;; Registers used:
  5350 ;;		wreg, status,2, status,0, pclath, cstack
  5351 ;; Tracked objects:
  5352 ;;		On entry : 0/0
  5353 ;;		On exit  : 0/0
  5354 ;;		Unchanged: 0/0
  5355 ;; Data sizes:     COMMON   BANK0   BANK1   BANK2   BANK3   BANK4   BANK5   BANK6   BANK7   BANK8   BANK9  BANK10  BANK1
      +1  BANK12  BANK13  BANK14  BANK15  BANK16  BANK17  BANK18  BANK19  BANK20  BANK21  BANK22  BANK23  BANK24  BANK25  BANK2
      +6  BANK27  BANK28  BANK29  BANK30  BANK31  BANK32  BANK33  BANK34  BANK35  BANK36  BANK37  BANK38  BANK39  BANK40  BANK4
      +1  BANK42  BANK43  BANK44  BANK45  BANK46  BANK47  BANK48  BANK49  BANK50
  5356 ;;      Params:         0       0       0       0       0       0       0       0       0       0       0       0       
      +0       0       0       0       0       0       0       0       0       0       0       0       0       0       0       
      +0       0       0       0       0       0       0       0       0       0       0       0       0       0       0       
      +0       0       0       0       0       0       0       0       0       0
  5357 ;;      Locals:         0       0       0       0       0       0       0       0       0       0       0       0       
      +0       0       0       0       0       0       0       0       0       0       0       0       0       0       0       
      +0       0       0       0       0       0       0       0       0       0       0       0       0       0       0       
      +0       0       0       0       0       0       0       0       0       0
  5358 ;;      Temps:          1       0       0       0       0       0       0       0       0       0       0       0       
      +0       0       0       0       0       0       0       0       0       0       0       0       0       0       0       
      +0       0       0       0       0       0       0       0       0       0       0       0       0       0       0       
      +0       0       0       0       0       0       0       0       0       0
  5359 ;;      Totals:         1       0       0       0       0       0       0       0       0       0       0       0       
      +0       0       0       0       0       0       0       0       0       0       0       0       0       0       0       
      +0       0       0       0       0       0       0       0       0       0       0       0       0       0       0       
      +0       0       0       0       0       0       0       0       0       0
  5360 ;;Total ram usage:        1 bytes
  5361 ;; Hardware stack levels used:    1
  5362 ;; Hardware stack levels required when called:    5
  5363 ;; This function calls:
  5364 ;;		_EUSART_SetErrorHandler
  5365 ;;		_EUSART_SetFramingErrorHandler
  5366 ;;		_EUSART_SetOverrunErrorHandler
  5367 ;;		_EUSART_SetRxInterruptHandler
  5368 ;;		_EUSART_SetTxInterruptHandler
  5369 ;; This function is called by:
  5370 ;;		_SYSTEM_Initialize
  5371 ;; This function uses a non-reentrant model
  5372 ;;
  5373                           
  5374                           
  5375                           ;psect for function _EUSART_Initialize
  5376  02B7                     _EUSART_Initialize:	
  5377  02B7                     l1994:	
  5378                           ;incstack = 0
  5379                           ; Regs used in _EUSART_Initialize: [wreg+status,2+status,0+pclath+cstack]
  5380                           
  5381                           
  5382                           ;mcc_generated_files/eusart.c: 91:     PIE3bits.RCIE = 0;
  5383  02B7  014E               	movlb	14	; select bank14
  5384  02B8  1299               	bcf	25,5	;volatile
  5385  02B9                     l1996:	
  5386                           
  5387                           ;mcc_generated_files/eusart.c: 92:     EUSART_SetRxInterruptHandler(EUSART_Receive_ISR);
  5388  02B9  30F6               	movlw	low _EUSART_Receive_ISR
  5389  02BA  00F2               	movwf	EUSART_SetRxInterruptHandler@interruptHandler
  5390  02BB  3002               	movlw	high _EUSART_Receive_ISR
  5391  02BC  00F3               	movwf	EUSART_SetRxInterruptHandler@interruptHandler+1
  5392  02BD  3184  247E  3182   	fcall	_EUSART_SetRxInterruptHandler
  5393  02C0                     l1998:	
  5394                           
  5395                           ;mcc_generated_files/eusart.c: 93:     PIE3bits.TXIE = 0;
  5396  02C0  014E               	movlb	14	; select bank14
  5397  02C1  1219               	bcf	25,4	;volatile
  5398                           
  5399                           ;mcc_generated_files/eusart.c: 94:     EUSART_SetTxInterruptHandler(EUSART_Transmit_ISR)
      +                          ;
  5400  02C2  30D5               	movlw	low _EUSART_Transmit_ISR
  5401  02C3  00F2               	movwf	EUSART_SetTxInterruptHandler@interruptHandler
  5402  02C4  3003               	movlw	high _EUSART_Transmit_ISR
  5403  02C5  00F3               	movwf	EUSART_SetTxInterruptHandler@interruptHandler+1
  5404  02C6  3184  2478  3182   	fcall	_EUSART_SetTxInterruptHandler
  5405  02C9                     l2000:	
  5406                           
  5407                           ;mcc_generated_files/eusart.c: 98:     BAUD1CON = 0x08;
  5408  02C9  3008               	movlw	8
  5409  02CA  0142               	movlb	2	; select bank2
  5410  02CB  009F               	movwf	31	;volatile
  5411  02CC                     l2002:	
  5412                           
  5413                           ;mcc_generated_files/eusart.c: 101:     RC1STA = 0xD8;
  5414  02CC  30D8               	movlw	216
  5415  02CD  009D               	movwf	29	;volatile
  5416  02CE                     l2004:	
  5417                           
  5418                           ;mcc_generated_files/eusart.c: 104:     TX1STA = 0x64;
  5419  02CE  3064               	movlw	100
  5420  02CF  009E               	movwf	30	;volatile
  5421  02D0                     l2006:	
  5422                           
  5423                           ;mcc_generated_files/eusart.c: 107:     SP1BRGL = 0x03;
  5424  02D0  3003               	movlw	3
  5425  02D1  009B               	movwf	27	;volatile
  5426  02D2                     l2008:	
  5427                           
  5428                           ;mcc_generated_files/eusart.c: 110:     SP1BRGH = 0x00;
  5429  02D2  019C               	clrf	28	;volatile
  5430  02D3                     l2010:	
  5431                           
  5432                           ;mcc_generated_files/eusart.c: 113:     EUSART_SetFramingErrorHandler(EUSART_DefaultFram
      +                          ingErrorHandler);
  5433  02D3  30A2               	movlw	low _EUSART_DefaultFramingErrorHandler
  5434  02D4  00F2               	movwf	EUSART_SetFramingErrorHandler@interruptHandler
  5435  02D5  3004               	movlw	high _EUSART_DefaultFramingErrorHandler
  5436  02D6  00F3               	movwf	EUSART_SetFramingErrorHandler@interruptHandler+1
  5437  02D7  3184  248A  3182   	fcall	_EUSART_SetFramingErrorHandler
  5438  02DA                     l2012:	
  5439                           
  5440                           ;mcc_generated_files/eusart.c: 114:     EUSART_SetOverrunErrorHandler(EUSART_DefaultOver
      +                          runErrorHandler);
  5441  02DA  309A               	movlw	low _EUSART_DefaultOverrunErrorHandler
  5442  02DB  00F2               	movwf	EUSART_SetOverrunErrorHandler@interruptHandler
  5443  02DC  3004               	movlw	high _EUSART_DefaultOverrunErrorHandler
  5444  02DD  00F3               	movwf	EUSART_SetOverrunErrorHandler@interruptHandler+1
  5445  02DE  3184  2484  3182   	fcall	_EUSART_SetOverrunErrorHandler
  5446  02E1                     l2014:	
  5447                           
  5448                           ;mcc_generated_files/eusart.c: 115:     EUSART_SetErrorHandler(EUSART_DefaultErrorHandle
      +                          r);
  5449  02E1  309E               	movlw	low _EUSART_DefaultErrorHandler
  5450  02E2  00F2               	movwf	EUSART_SetErrorHandler@interruptHandler
  5451  02E3  3004               	movlw	high _EUSART_DefaultErrorHandler
  5452  02E4  00F3               	movwf	EUSART_SetErrorHandler@interruptHandler+1
  5453  02E5  3184  2490  3182   	fcall	_EUSART_SetErrorHandler
  5454                           
  5455                           ;mcc_generated_files/eusart.c: 117:     eusartRxLastError.status = 0;
  5456  02E8  0141               	movlb	1	; select bank1
  5457  02E9  01B1               	clrf	_eusartRxLastError^(0+128)	;volatile
  5458                           
  5459                           ;mcc_generated_files/eusart.c: 120:     eusartTxHead = 0;
  5460  02EA  01FB               	clrf	_eusartTxHead	;volatile
  5461                           
  5462                           ;mcc_generated_files/eusart.c: 121:     eusartTxTail = 0;
  5463  02EB  01B3               	clrf	_eusartTxTail^(0+128)	;volatile
  5464  02EC                     l2016:	
  5465                           
  5466                           ;mcc_generated_files/eusart.c: 122:     eusartTxBufferRemaining = sizeof(eusartTxBuffer)
      +                          ;
  5467  02EC  3040               	movlw	64
  5468  02ED  00F4               	movwf	??_EUSART_Initialize
  5469  02EE  0874               	movf	??_EUSART_Initialize,w
  5470  02EF  00E0               	movwf	_eusartTxBufferRemaining^(0+128)	;volatile
  5471  02F0                     l2018:	
  5472                           
  5473                           ;mcc_generated_files/eusart.c: 124:     eusartRxHead = 0;
  5474  02F0  01FA               	clrf	_eusartRxHead	;volatile
  5475  02F1                     l2020:	
  5476                           
  5477                           ;mcc_generated_files/eusart.c: 125:     eusartRxTail = 0;
  5478  02F1  01F9               	clrf	_eusartRxTail	;volatile
  5479  02F2                     l2022:	
  5480                           
  5481                           ;mcc_generated_files/eusart.c: 126:     eusartRxCount = 0;
  5482  02F2  01B2               	clrf	_eusartRxCount^(0+128)	;volatile
  5483  02F3                     l2024:	
  5484                           
  5485                           ;mcc_generated_files/eusart.c: 129:     PIE3bits.RCIE = 1;
  5486  02F3  014E               	movlb	14	; select bank14
  5487  02F4  1699               	bsf	25,5	;volatile
  5488  02F5                     l229:	
  5489  02F5  0008               	return
  5490  02F6                     __end_of_EUSART_Initialize:	
  5491                           
  5492                           	psect	text7
  5493  0478                     __ptext7:	
  5494 ;; *************** function _EUSART_SetTxInterruptHandler *****************
  5495 ;; Defined at:
  5496 ;;		line 276 in file "mcc_generated_files/eusart.c"
  5497 ;; Parameters:    Size  Location     Type
  5498 ;;  interruptHan    2    2[COMMON] PTR FTN()void 
  5499 ;;		 -> EUSART_Transmit_ISR(1), 
  5500 ;; Auto vars:     Size  Location     Type
  5501 ;;		None
  5502 ;; Return value:  Size  Location     Type
  5503 ;;                  1    wreg      void 
  5504 ;; Registers used:
  5505 ;;		wreg
  5506 ;; Tracked objects:
  5507 ;;		On entry : 0/0
  5508 ;;		On exit  : 0/0
  5509 ;;		Unchanged: 0/0
  5510 ;; Data sizes:     COMMON   BANK0   BANK1   BANK2   BANK3   BANK4   BANK5   BANK6   BANK7   BANK8   BANK9  BANK10  BANK1
      +1  BANK12  BANK13  BANK14  BANK15  BANK16  BANK17  BANK18  BANK19  BANK20  BANK21  BANK22  BANK23  BANK24  BANK25  BANK2
      +6  BANK27  BANK28  BANK29  BANK30  BANK31  BANK32  BANK33  BANK34  BANK35  BANK36  BANK37  BANK38  BANK39  BANK40  BANK4
      +1  BANK42  BANK43  BANK44  BANK45  BANK46  BANK47  BANK48  BANK49  BANK50
  5511 ;;      Params:         2       0       0       0       0       0       0       0       0       0       0       0       
      +0       0       0       0       0       0       0       0       0       0       0       0       0       0       0       
      +0       0       0       0       0       0       0       0       0       0       0       0       0       0       0       
      +0       0       0       0       0       0       0       0       0       0
  5512 ;;      Locals:         0       0       0       0       0       0       0       0       0       0       0       0       
      +0       0       0       0       0       0       0       0       0       0       0       0       0       0       0       
      +0       0       0       0       0       0       0       0       0       0       0       0       0       0       0       
      +0       0       0       0       0       0       0       0       0       0
  5513 ;;      Temps:          0       0       0       0       0       0       0       0       0       0       0       0       
      +0       0       0       0       0       0       0       0       0       0       0       0       0       0       0       
      +0       0       0       0       0       0       0       0       0       0       0       0       0       0       0       
      +0       0       0       0       0       0       0       0       0       0
  5514 ;;      Totals:         2       0       0       0       0       0       0       0       0       0       0       0       
      +0       0       0       0       0       0       0       0       0       0       0       0       0       0       0       
      +0       0       0       0       0       0       0       0       0       0       0       0       0       0       0       
      +0       0       0       0       0       0       0       0       0       0
  5515 ;;Total ram usage:        2 bytes
  5516 ;; Hardware stack levels used:    1
  5517 ;; Hardware stack levels required when called:    4
  5518 ;; This function calls:
  5519 ;;		Nothing
  5520 ;; This function is called by:
  5521 ;;		_EUSART_Initialize
  5522 ;; This function uses a non-reentrant model
  5523 ;;
  5524                           
  5525                           
  5526                           ;psect for function _EUSART_SetTxInterruptHandler
  5527  0478                     _EUSART_SetTxInterruptHandler:	
  5528  0478                     l1974:	
  5529                           ;incstack = 0
  5530                           ; Regs used in _EUSART_SetTxInterruptHandler: [wreg]
  5531                           
  5532                           
  5533                           ;mcc_generated_files/eusart.c: 277:     EUSART_TxDefaultInterruptHandler = interruptHand
      +                          ler;
  5534  0478  0873               	movf	EUSART_SetTxInterruptHandler@interruptHandler+1,w
  5535  0479  0141               	movlb	1	; select bank1
  5536  047A  00DF               	movwf	(_EUSART_TxDefaultInterruptHandler+1)^(0+128)
  5537  047B  0872               	movf	EUSART_SetTxInterruptHandler@interruptHandler,w
  5538  047C  00DE               	movwf	_EUSART_TxDefaultInterruptHandler^(0+128)
  5539  047D                     l295:	
  5540  047D  0008               	return
  5541  047E                     __end_of_EUSART_SetTxInterruptHandler:	
  5542                           
  5543                           	psect	text8
  5544  047E                     __ptext8:	
  5545 ;; *************** function _EUSART_SetRxInterruptHandler *****************
  5546 ;; Defined at:
  5547 ;;		line 280 in file "mcc_generated_files/eusart.c"
  5548 ;; Parameters:    Size  Location     Type
  5549 ;;  interruptHan    2    2[COMMON] PTR FTN()void 
  5550 ;;		 -> UserRxInterruptHandler(1), EUSART_Receive_ISR(1), 
  5551 ;; Auto vars:     Size  Location     Type
  5552 ;;		None
  5553 ;; Return value:  Size  Location     Type
  5554 ;;                  1    wreg      void 
  5555 ;; Registers used:
  5556 ;;		wreg
  5557 ;; Tracked objects:
  5558 ;;		On entry : 0/0
  5559 ;;		On exit  : 0/0
  5560 ;;		Unchanged: 0/0
  5561 ;; Data sizes:     COMMON   BANK0   BANK1   BANK2   BANK3   BANK4   BANK5   BANK6   BANK7   BANK8   BANK9  BANK10  BANK1
      +1  BANK12  BANK13  BANK14  BANK15  BANK16  BANK17  BANK18  BANK19  BANK20  BANK21  BANK22  BANK23  BANK24  BANK25  BANK2
      +6  BANK27  BANK28  BANK29  BANK30  BANK31  BANK32  BANK33  BANK34  BANK35  BANK36  BANK37  BANK38  BANK39  BANK40  BANK4
      +1  BANK42  BANK43  BANK44  BANK45  BANK46  BANK47  BANK48  BANK49  BANK50
  5562 ;;      Params:         2       0       0       0       0       0       0       0       0       0       0       0       
      +0       0       0       0       0       0       0       0       0       0       0       0       0       0       0       
      +0       0       0       0       0       0       0       0       0       0       0       0       0       0       0       
      +0       0       0       0       0       0       0       0       0       0
  5563 ;;      Locals:         0       0       0       0       0       0       0       0       0       0       0       0       
      +0       0       0       0       0       0       0       0       0       0       0       0       0       0       0       
      +0       0       0       0       0       0       0       0       0       0       0       0       0       0       0       
      +0       0       0       0       0       0       0       0       0       0
  5564 ;;      Temps:          0       0       0       0       0       0       0       0       0       0       0       0       
      +0       0       0       0       0       0       0       0       0       0       0       0       0       0       0       
      +0       0       0       0       0       0       0       0       0       0       0       0       0       0       0       
      +0       0       0       0       0       0       0       0       0       0
  5565 ;;      Totals:         2       0       0       0       0       0       0       0       0       0       0       0       
      +0       0       0       0       0       0       0       0       0       0       0       0       0       0       0       
      +0       0       0       0       0       0       0       0       0       0       0       0       0       0       0       
      +0       0       0       0       0       0       0       0       0       0
  5566 ;;Total ram usage:        2 bytes
  5567 ;; Hardware stack levels used:    1
  5568 ;; Hardware stack levels required when called:    4
  5569 ;; This function calls:
  5570 ;;		Nothing
  5571 ;; This function is called by:
  5572 ;;		_EUSART_Initialize
  5573 ;;		_main
  5574 ;; This function uses a non-reentrant model
  5575 ;;
  5576                           
  5577                           
  5578                           ;psect for function _EUSART_SetRxInterruptHandler
  5579  047E                     _EUSART_SetRxInterruptHandler:	
  5580  047E                     l1972:	
  5581                           ;incstack = 0
  5582                           ; Regs used in _EUSART_SetRxInterruptHandler: [wreg]
  5583                           
  5584                           
  5585                           ;mcc_generated_files/eusart.c: 281:     EUSART_RxDefaultInterruptHandler = interruptHand
      +                          ler;
  5586  047E  0873               	movf	EUSART_SetRxInterruptHandler@interruptHandler+1,w
  5587  047F  0141               	movlb	1	; select bank1
  5588  0480  00DD               	movwf	(_EUSART_RxDefaultInterruptHandler+1)^(0+128)
  5589  0481  0872               	movf	EUSART_SetRxInterruptHandler@interruptHandler,w
  5590  0482  00DC               	movwf	_EUSART_RxDefaultInterruptHandler^(0+128)
  5591  0483                     l298:	
  5592  0483  0008               	return
  5593  0484                     __end_of_EUSART_SetRxInterruptHandler:	
  5594                           
  5595                           	psect	text9
  5596  0484                     __ptext9:	
  5597 ;; *************** function _EUSART_SetOverrunErrorHandler *****************
  5598 ;; Defined at:
  5599 ;;		line 268 in file "mcc_generated_files/eusart.c"
  5600 ;; Parameters:    Size  Location     Type
  5601 ;;  interruptHan    2    2[COMMON] PTR FTN()void 
  5602 ;;		 -> EUSART_DefaultOverrunErrorHandler(1), 
  5603 ;; Auto vars:     Size  Location     Type
  5604 ;;		None
  5605 ;; Return value:  Size  Location     Type
  5606 ;;                  1    wreg      void 
  5607 ;; Registers used:
  5608 ;;		wreg
  5609 ;; Tracked objects:
  5610 ;;		On entry : 0/0
  5611 ;;		On exit  : 0/0
  5612 ;;		Unchanged: 0/0
  5613 ;; Data sizes:     COMMON   BANK0   BANK1   BANK2   BANK3   BANK4   BANK5   BANK6   BANK7   BANK8   BANK9  BANK10  BANK1
      +1  BANK12  BANK13  BANK14  BANK15  BANK16  BANK17  BANK18  BANK19  BANK20  BANK21  BANK22  BANK23  BANK24  BANK25  BANK2
      +6  BANK27  BANK28  BANK29  BANK30  BANK31  BANK32  BANK33  BANK34  BANK35  BANK36  BANK37  BANK38  BANK39  BANK40  BANK4
      +1  BANK42  BANK43  BANK44  BANK45  BANK46  BANK47  BANK48  BANK49  BANK50
  5614 ;;      Params:         2       0       0       0       0       0       0       0       0       0       0       0       
      +0       0       0       0       0       0       0       0       0       0       0       0       0       0       0       
      +0       0       0       0       0       0       0       0       0       0       0       0       0       0       0       
      +0       0       0       0       0       0       0       0       0       0
  5615 ;;      Locals:         0       0       0       0       0       0       0       0       0       0       0       0       
      +0       0       0       0       0       0       0       0       0       0       0       0       0       0       0       
      +0       0       0       0       0       0       0       0       0       0       0       0       0       0       0       
      +0       0       0       0       0       0       0       0       0       0
  5616 ;;      Temps:          0       0       0       0       0       0       0       0       0       0       0       0       
      +0       0       0       0       0       0       0       0       0       0       0       0       0       0       0       
      +0       0       0       0       0       0       0       0       0       0       0       0       0       0       0       
      +0       0       0       0       0       0       0       0       0       0
  5617 ;;      Totals:         2       0       0       0       0       0       0       0       0       0       0       0       
      +0       0       0       0       0       0       0       0       0       0       0       0       0       0       0       
      +0       0       0       0       0       0       0       0       0       0       0       0       0       0       0       
      +0       0       0       0       0       0       0       0       0       0
  5618 ;;Total ram usage:        2 bytes
  5619 ;; Hardware stack levels used:    1
  5620 ;; Hardware stack levels required when called:    4
  5621 ;; This function calls:
  5622 ;;		Nothing
  5623 ;; This function is called by:
  5624 ;;		_EUSART_Initialize
  5625 ;; This function uses a non-reentrant model
  5626 ;;
  5627                           
  5628                           
  5629                           ;psect for function _EUSART_SetOverrunErrorHandler
  5630  0484                     _EUSART_SetOverrunErrorHandler:	
  5631  0484                     l1978:	
  5632                           ;incstack = 0
  5633                           ; Regs used in _EUSART_SetOverrunErrorHandler: [wreg]
  5634                           
  5635                           
  5636                           ;mcc_generated_files/eusart.c: 269:     EUSART_OverrunErrorHandler = interruptHandler;
  5637  0484  0873               	movf	EUSART_SetOverrunErrorHandler@interruptHandler+1,w
  5638  0485  0141               	movlb	1	; select bank1
  5639  0486  00D9               	movwf	(_EUSART_OverrunErrorHandler+1)^(0+128)
  5640  0487  0872               	movf	EUSART_SetOverrunErrorHandler@interruptHandler,w
  5641  0488  00D8               	movwf	_EUSART_OverrunErrorHandler^(0+128)
  5642  0489                     l289:	
  5643  0489  0008               	return
  5644  048A                     __end_of_EUSART_SetOverrunErrorHandler:	
  5645                           
  5646                           	psect	text10
  5647  048A                     __ptext10:	
  5648 ;; *************** function _EUSART_SetFramingErrorHandler *****************
  5649 ;; Defined at:
  5650 ;;		line 264 in file "mcc_generated_files/eusart.c"
  5651 ;; Parameters:    Size  Location     Type
  5652 ;;  interruptHan    2    2[COMMON] PTR FTN()void 
  5653 ;;		 -> EUSART_DefaultFramingErrorHandler(1), 
  5654 ;; Auto vars:     Size  Location     Type
  5655 ;;		None
  5656 ;; Return value:  Size  Location     Type
  5657 ;;                  1    wreg      void 
  5658 ;; Registers used:
  5659 ;;		wreg
  5660 ;; Tracked objects:
  5661 ;;		On entry : 0/0
  5662 ;;		On exit  : 0/0
  5663 ;;		Unchanged: 0/0
  5664 ;; Data sizes:     COMMON   BANK0   BANK1   BANK2   BANK3   BANK4   BANK5   BANK6   BANK7   BANK8   BANK9  BANK10  BANK1
      +1  BANK12  BANK13  BANK14  BANK15  BANK16  BANK17  BANK18  BANK19  BANK20  BANK21  BANK22  BANK23  BANK24  BANK25  BANK2
      +6  BANK27  BANK28  BANK29  BANK30  BANK31  BANK32  BANK33  BANK34  BANK35  BANK36  BANK37  BANK38  BANK39  BANK40  BANK4
      +1  BANK42  BANK43  BANK44  BANK45  BANK46  BANK47  BANK48  BANK49  BANK50
  5665 ;;      Params:         2       0       0       0       0       0       0       0       0       0       0       0       
      +0       0       0       0       0       0       0       0       0       0       0       0       0       0       0       
      +0       0       0       0       0       0       0       0       0       0       0       0       0       0       0       
      +0       0       0       0       0       0       0       0       0       0
  5666 ;;      Locals:         0       0       0       0       0       0       0       0       0       0       0       0       
      +0       0       0       0       0       0       0       0       0       0       0       0       0       0       0       
      +0       0       0       0       0       0       0       0       0       0       0       0       0       0       0       
      +0       0       0       0       0       0       0       0       0       0
  5667 ;;      Temps:          0       0       0       0       0       0       0       0       0       0       0       0       
      +0       0       0       0       0       0       0       0       0       0       0       0       0       0       0       
      +0       0       0       0       0       0       0       0       0       0       0       0       0       0       0       
      +0       0       0       0       0       0       0       0       0       0
  5668 ;;      Totals:         2       0       0       0       0       0       0       0       0       0       0       0       
      +0       0       0       0       0       0       0       0       0       0       0       0       0       0       0       
      +0       0       0       0       0       0       0       0       0       0       0       0       0       0       0       
      +0       0       0       0       0       0       0       0       0       0
  5669 ;;Total ram usage:        2 bytes
  5670 ;; Hardware stack levels used:    1
  5671 ;; Hardware stack levels required when called:    4
  5672 ;; This function calls:
  5673 ;;		Nothing
  5674 ;; This function is called by:
  5675 ;;		_EUSART_Initialize
  5676 ;; This function uses a non-reentrant model
  5677 ;;
  5678                           
  5679                           
  5680                           ;psect for function _EUSART_SetFramingErrorHandler
  5681  048A                     _EUSART_SetFramingErrorHandler:	
  5682  048A                     l1976:	
  5683                           ;incstack = 0
  5684                           ; Regs used in _EUSART_SetFramingErrorHandler: [wreg]
  5685                           
  5686                           
  5687                           ;mcc_generated_files/eusart.c: 265:     EUSART_FramingErrorHandler = interruptHandler;
  5688  048A  0873               	movf	EUSART_SetFramingErrorHandler@interruptHandler+1,w
  5689  048B  0141               	movlb	1	; select bank1
  5690  048C  00DB               	movwf	(_EUSART_FramingErrorHandler+1)^(0+128)
  5691  048D  0872               	movf	EUSART_SetFramingErrorHandler@interruptHandler,w
  5692  048E  00DA               	movwf	_EUSART_FramingErrorHandler^(0+128)
  5693  048F                     l286:	
  5694  048F  0008               	return
  5695  0490                     __end_of_EUSART_SetFramingErrorHandler:	
  5696                           
  5697                           	psect	text11
  5698  0490                     __ptext11:	
  5699 ;; *************** function _EUSART_SetErrorHandler *****************
  5700 ;; Defined at:
  5701 ;;		line 272 in file "mcc_generated_files/eusart.c"
  5702 ;; Parameters:    Size  Location     Type
  5703 ;;  interruptHan    2    2[COMMON] PTR FTN()void 
  5704 ;;		 -> EUSART_DefaultErrorHandler(1), 
  5705 ;; Auto vars:     Size  Location     Type
  5706 ;;		None
  5707 ;; Return value:  Size  Location     Type
  5708 ;;                  1    wreg      void 
  5709 ;; Registers used:
  5710 ;;		wreg
  5711 ;; Tracked objects:
  5712 ;;		On entry : 0/0
  5713 ;;		On exit  : 0/0
  5714 ;;		Unchanged: 0/0
  5715 ;; Data sizes:     COMMON   BANK0   BANK1   BANK2   BANK3   BANK4   BANK5   BANK6   BANK7   BANK8   BANK9  BANK10  BANK1
      +1  BANK12  BANK13  BANK14  BANK15  BANK16  BANK17  BANK18  BANK19  BANK20  BANK21  BANK22  BANK23  BANK24  BANK25  BANK2
      +6  BANK27  BANK28  BANK29  BANK30  BANK31  BANK32  BANK33  BANK34  BANK35  BANK36  BANK37  BANK38  BANK39  BANK40  BANK4
      +1  BANK42  BANK43  BANK44  BANK45  BANK46  BANK47  BANK48  BANK49  BANK50
  5716 ;;      Params:         2       0       0       0       0       0       0       0       0       0       0       0       
      +0       0       0       0       0       0       0       0       0       0       0       0       0       0       0       
      +0       0       0       0       0       0       0       0       0       0       0       0       0       0       0       
      +0       0       0       0       0       0       0       0       0       0
  5717 ;;      Locals:         0       0       0       0       0       0       0       0       0       0       0       0       
      +0       0       0       0       0       0       0       0       0       0       0       0       0       0       0       
      +0       0       0       0       0       0       0       0       0       0       0       0       0       0       0       
      +0       0       0       0       0       0       0       0       0       0
  5718 ;;      Temps:          0       0       0       0       0       0       0       0       0       0       0       0       
      +0       0       0       0       0       0       0       0       0       0       0       0       0       0       0       
      +0       0       0       0       0       0       0       0       0       0       0       0       0       0       0       
      +0       0       0       0       0       0       0       0       0       0
  5719 ;;      Totals:         2       0       0       0       0       0       0       0       0       0       0       0       
      +0       0       0       0       0       0       0       0       0       0       0       0       0       0       0       
      +0       0       0       0       0       0       0       0       0       0       0       0       0       0       0       
      +0       0       0       0       0       0       0       0       0       0
  5720 ;;Total ram usage:        2 bytes
  5721 ;; Hardware stack levels used:    1
  5722 ;; Hardware stack levels required when called:    4
  5723 ;; This function calls:
  5724 ;;		Nothing
  5725 ;; This function is called by:
  5726 ;;		_EUSART_Initialize
  5727 ;; This function uses a non-reentrant model
  5728 ;;
  5729                           
  5730                           
  5731                           ;psect for function _EUSART_SetErrorHandler
  5732  0490                     _EUSART_SetErrorHandler:	
  5733  0490                     l1980:	
  5734                           ;incstack = 0
  5735                           ; Regs used in _EUSART_SetErrorHandler: [wreg]
  5736                           
  5737                           
  5738                           ;mcc_generated_files/eusart.c: 273:     EUSART_ErrorHandler = interruptHandler;
  5739  0490  0873               	movf	EUSART_SetErrorHandler@interruptHandler+1,w
  5740  0491  0141               	movlb	1	; select bank1
  5741  0492  00D7               	movwf	(_EUSART_ErrorHandler+1)^(0+128)
  5742  0493  0872               	movf	EUSART_SetErrorHandler@interruptHandler,w
  5743  0494  00D6               	movwf	_EUSART_ErrorHandler^(0+128)
  5744  0495                     l292:	
  5745  0495  0008               	return
  5746  0496                     __end_of_EUSART_SetErrorHandler:	
  5747                           
  5748                           	psect	text12
  5749  0412                     __ptext12:	
  5750 ;; *************** function _ADCC_Initialize *****************
  5751 ;; Defined at:
  5752 ;;		line 63 in file "mcc_generated_files/adcc.c"
  5753 ;; Parameters:    Size  Location     Type
  5754 ;;		None
  5755 ;; Auto vars:     Size  Location     Type
  5756 ;;		None
  5757 ;; Return value:  Size  Location     Type
  5758 ;;                  1    wreg      void 
  5759 ;; Registers used:
  5760 ;;		wreg, status,2
  5761 ;; Tracked objects:
  5762 ;;		On entry : 0/0
  5763 ;;		On exit  : 0/0
  5764 ;;		Unchanged: 0/0
  5765 ;; Data sizes:     COMMON   BANK0   BANK1   BANK2   BANK3   BANK4   BANK5   BANK6   BANK7   BANK8   BANK9  BANK10  BANK1
      +1  BANK12  BANK13  BANK14  BANK15  BANK16  BANK17  BANK18  BANK19  BANK20  BANK21  BANK22  BANK23  BANK24  BANK25  BANK2
      +6  BANK27  BANK28  BANK29  BANK30  BANK31  BANK32  BANK33  BANK34  BANK35  BANK36  BANK37  BANK38  BANK39  BANK40  BANK4
      +1  BANK42  BANK43  BANK44  BANK45  BANK46  BANK47  BANK48  BANK49  BANK50
  5766 ;;      Params:         0       0       0       0       0       0       0       0       0       0       0       0       
      +0       0       0       0       0       0       0       0       0       0       0       0       0       0       0       
      +0       0       0       0       0       0       0       0       0       0       0       0       0       0       0       
      +0       0       0       0       0       0       0       0       0       0
  5767 ;;      Locals:         0       0       0       0       0       0       0       0       0       0       0       0       
      +0       0       0       0       0       0       0       0       0       0       0       0       0       0       0       
      +0       0       0       0       0       0       0       0       0       0       0       0       0       0       0       
      +0       0       0       0       0       0       0       0       0       0
  5768 ;;      Temps:          0       0       0       0       0       0       0       0       0       0       0       0       
      +0       0       0       0       0       0       0       0       0       0       0       0       0       0       0       
      +0       0       0       0       0       0       0       0       0       0       0       0       0       0       0       
      +0       0       0       0       0       0       0       0       0       0
  5769 ;;      Totals:         0       0       0       0       0       0       0       0       0       0       0       0       
      +0       0       0       0       0       0       0       0       0       0       0       0       0       0       0       
      +0       0       0       0       0       0       0       0       0       0       0       0       0       0       0       
      +0       0       0       0       0       0       0       0       0       0
  5770 ;;Total ram usage:        0 bytes
  5771 ;; Hardware stack levels used:    1
  5772 ;; Hardware stack levels required when called:    4
  5773 ;; This function calls:
  5774 ;;		Nothing
  5775 ;; This function is called by:
  5776 ;;		_SYSTEM_Initialize
  5777 ;; This function uses a non-reentrant model
  5778 ;;
  5779                           
  5780                           
  5781                           ;psect for function _ADCC_Initialize
  5782  0412                     _ADCC_Initialize:	
  5783  0412                     l1982:	
  5784                           ;incstack = 0
  5785                           ; Regs used in _ADCC_Initialize: [wreg+status,2]
  5786                           
  5787                           
  5788                           ;mcc_generated_files/adcc.c: 67:     ADLTHL = 0x00;
  5789  0412  0142               	movlb	2	; select bank2
  5790  0413  018E               	clrf	14	;volatile
  5791                           
  5792                           ;mcc_generated_files/adcc.c: 69:     ADLTHH = 0x00;
  5793  0414  018F               	clrf	15	;volatile
  5794                           
  5795                           ;mcc_generated_files/adcc.c: 71:     ADUTHL = 0x00;
  5796  0415  0190               	clrf	16	;volatile
  5797                           
  5798                           ;mcc_generated_files/adcc.c: 73:     ADUTHH = 0x00;
  5799  0416  0191               	clrf	17	;volatile
  5800                           
  5801                           ;mcc_generated_files/adcc.c: 75:     ADSTPTL = 0x00;
  5802  0417  0192               	clrf	18	;volatile
  5803                           
  5804                           ;mcc_generated_files/adcc.c: 77:     ADSTPTH = 0x00;
  5805  0418  0193               	clrf	19	;volatile
  5806                           
  5807                           ;mcc_generated_files/adcc.c: 79:     ADRPT = 0x00;
  5808  0419  018D               	clrf	13	;volatile
  5809                           
  5810                           ;mcc_generated_files/adcc.c: 81:     ADPCH = 0x00;
  5811  041A  0141               	movlb	1	; select bank1
  5812  041B  019E               	clrf	30	;volatile
  5813                           
  5814                           ;mcc_generated_files/adcc.c: 83:     ADCAP = 0x00;
  5815  041C  019B               	clrf	27	;volatile
  5816                           
  5817                           ;mcc_generated_files/adcc.c: 85:     ADPRE = 0x00;
  5818  041D  019C               	clrf	28	;volatile
  5819                           
  5820                           ;mcc_generated_files/adcc.c: 87:     ADCON1 = 0x00;
  5821  041E  0194               	clrf	20	;volatile
  5822                           
  5823                           ;mcc_generated_files/adcc.c: 89:     ADCON2 = 0x00;
  5824  041F  0195               	clrf	21	;volatile
  5825                           
  5826                           ;mcc_generated_files/adcc.c: 91:     ADCON3 = 0x00;
  5827  0420  0196               	clrf	22	;volatile
  5828                           
  5829                           ;mcc_generated_files/adcc.c: 93:     ADSTAT = 0x00;
  5830  0421  0197               	clrf	23	;volatile
  5831  0422                     l1984:	
  5832                           
  5833                           ;mcc_generated_files/adcc.c: 95:     ADREF = 0x12;
  5834  0422  3012               	movlw	18
  5835  0423  009A               	movwf	26	;volatile
  5836  0424                     l1986:	
  5837                           
  5838                           ;mcc_generated_files/adcc.c: 97:     ADACT = 0x00;
  5839  0424  0199               	clrf	25	;volatile
  5840  0425                     l1988:	
  5841                           
  5842                           ;mcc_generated_files/adcc.c: 99:     ADCLK = 0x00;
  5843  0425  0198               	clrf	24	;volatile
  5844  0426                     l1990:	
  5845                           
  5846                           ;mcc_generated_files/adcc.c: 101:     ADCON0 = 0x84;
  5847  0426  3084               	movlw	132
  5848  0427  0093               	movwf	19	;volatile
  5849  0428                     l1992:	
  5850                           
  5851                           ;mcc_generated_files/adcc.c: 103:     ADACQ = 0x0A;
  5852  0428  300A               	movlw	10
  5853  0429  009D               	movwf	29	;volatile
  5854  042A                     l73:	
  5855  042A  0008               	return
  5856  042B                     __end_of_ADCC_Initialize:	
  5857                           
  5858                           	psect	text13
  5859  0496                     __ptext13:	
  5860 ;; *************** function _EUSART_is_tx_done *****************
  5861 ;; Defined at:
  5862 ;;		line 142 in file "mcc_generated_files/eusart.c"
  5863 ;; Parameters:    Size  Location     Type
  5864 ;;		None
  5865 ;; Auto vars:     Size  Location     Type
  5866 ;;		None
  5867 ;; Return value:  Size  Location     Type
  5868 ;;                  1    wreg      _Bool 
  5869 ;; Registers used:
  5870 ;;		wreg, status,2, status,0
  5871 ;; Tracked objects:
  5872 ;;		On entry : 0/0
  5873 ;;		On exit  : 0/0
  5874 ;;		Unchanged: 0/0
  5875 ;; Data sizes:     COMMON   BANK0   BANK1   BANK2   BANK3   BANK4   BANK5   BANK6   BANK7   BANK8   BANK9  BANK10  BANK1
      +1  BANK12  BANK13  BANK14  BANK15  BANK16  BANK17  BANK18  BANK19  BANK20  BANK21  BANK22  BANK23  BANK24  BANK25  BANK2
      +6  BANK27  BANK28  BANK29  BANK30  BANK31  BANK32  BANK33  BANK34  BANK35  BANK36  BANK37  BANK38  BANK39  BANK40  BANK4
      +1  BANK42  BANK43  BANK44  BANK45  BANK46  BANK47  BANK48  BANK49  BANK50
  5876 ;;      Params:         0       0       0       0       0       0       0       0       0       0       0       0       
      +0       0       0       0       0       0       0       0       0       0       0       0       0       0       0       
      +0       0       0       0       0       0       0       0       0       0       0       0       0       0       0       
      +0       0       0       0       0       0       0       0       0       0
  5877 ;;      Locals:         0       0       0       0       0       0       0       0       0       0       0       0       
      +0       0       0       0       0       0       0       0       0       0       0       0       0       0       0       
      +0       0       0       0       0       0       0       0       0       0       0       0       0       0       0       
      +0       0       0       0       0       0       0       0       0       0
  5878 ;;      Temps:          0       0       0       0       0       0       0       0       0       0       0       0       
      +0       0       0       0       0       0       0       0       0       0       0       0       0       0       0       
      +0       0       0       0       0       0       0       0       0       0       0       0       0       0       0       
      +0       0       0       0       0       0       0       0       0       0
  5879 ;;      Totals:         0       0       0       0       0       0       0       0       0       0       0       0       
      +0       0       0       0       0       0       0       0       0       0       0       0       0       0       0       
      +0       0       0       0       0       0       0       0       0       0       0       0       0       0       0       
      +0       0       0       0       0       0       0       0       0       0
  5880 ;;Total ram usage:        0 bytes
  5881 ;; Hardware stack levels used:    1
  5882 ;; Hardware stack levels required when called:    4
  5883 ;; This function calls:
  5884 ;;		Nothing
  5885 ;; This function is called by:
  5886 ;;		_main
  5887 ;; This function uses a non-reentrant model
  5888 ;;
  5889                           
  5890                           
  5891                           ;psect for function _EUSART_is_tx_done
  5892  0496                     _EUSART_is_tx_done:	
  5893  0496                     l2080:	
  5894                           ;incstack = 0
  5895                           ; Regs used in _EUSART_is_tx_done: [wreg+status,2+status,0]
  5896                           
  5897                           
  5898                           ;mcc_generated_files/eusart.c: 144:     return TX1STAbits.TRMT;
  5899  0496  0142               	movlb	2	; select bank2
  5900  0497  0C1E               	rrf	30,w	;volatile
  5901  0498  3901               	andlw	1
  5902  0499                     l238:	
  5903  0499  0008               	return
  5904  049A                     __end_of_EUSART_is_tx_done:	
  5905                           
  5906                           	psect	text14
  5907  035C                     __ptext14:	
  5908 ;; *************** function _EUSART_Write *****************
  5909 ;; Defined at:
  5910 ;;		line 173 in file "mcc_generated_files/eusart.c"
  5911 ;; Parameters:    Size  Location     Type
  5912 ;;  txData          1    wreg     unsigned char 
  5913 ;; Auto vars:     Size  Location     Type
  5914 ;;  txData          1    3[COMMON] unsigned char 
  5915 ;; Return value:  Size  Location     Type
  5916 ;;                  1    wreg      void 
  5917 ;; Registers used:
  5918 ;;		wreg, fsr1l, fsr1h, status,2, status,0
  5919 ;; Tracked objects:
  5920 ;;		On entry : 0/0
  5921 ;;		On exit  : 0/0
  5922 ;;		Unchanged: 0/0
  5923 ;; Data sizes:     COMMON   BANK0   BANK1   BANK2   BANK3   BANK4   BANK5   BANK6   BANK7   BANK8   BANK9  BANK10  BANK1
      +1  BANK12  BANK13  BANK14  BANK15  BANK16  BANK17  BANK18  BANK19  BANK20  BANK21  BANK22  BANK23  BANK24  BANK25  BANK2
      +6  BANK27  BANK28  BANK29  BANK30  BANK31  BANK32  BANK33  BANK34  BANK35  BANK36  BANK37  BANK38  BANK39  BANK40  BANK4
      +1  BANK42  BANK43  BANK44  BANK45  BANK46  BANK47  BANK48  BANK49  BANK50
  5924 ;;      Params:         0       0       0       0       0       0       0       0       0       0       0       0       
      +0       0       0       0       0       0       0       0       0       0       0       0       0       0       0       
      +0       0       0       0       0       0       0       0       0       0       0       0       0       0       0       
      +0       0       0       0       0       0       0       0       0       0
  5925 ;;      Locals:         1       0       0       0       0       0       0       0       0       0       0       0       
      +0       0       0       0       0       0       0       0       0       0       0       0       0       0       0       
      +0       0       0       0       0       0       0       0       0       0       0       0       0       0       0       
      +0       0       0       0       0       0       0       0       0       0
  5926 ;;      Temps:          1       0       0       0       0       0       0       0       0       0       0       0       
      +0       0       0       0       0       0       0       0       0       0       0       0       0       0       0       
      +0       0       0       0       0       0       0       0       0       0       0       0       0       0       0       
      +0       0       0       0       0       0       0       0       0       0
  5927 ;;      Totals:         2       0       0       0       0       0       0       0       0       0       0       0       
      +0       0       0       0       0       0       0       0       0       0       0       0       0       0       0       
      +0       0       0       0       0       0       0       0       0       0       0       0       0       0       0       
      +0       0       0       0       0       0       0       0       0       0
  5928 ;;Total ram usage:        2 bytes
  5929 ;; Hardware stack levels used:    1
  5930 ;; Hardware stack levels required when called:    4
  5931 ;; This function calls:
  5932 ;;		Nothing
  5933 ;; This function is called by:
  5934 ;;		_main
  5935 ;; This function uses a non-reentrant model
  5936 ;;
  5937                           
  5938                           
  5939                           ;psect for function _EUSART_Write
  5940  035C                     _EUSART_Write:	
  5941                           
  5942                           ;incstack = 0
  5943                           ; Regs used in _EUSART_Write: [wreg+fsr1l+fsr1h+status,2+status,0]
  5944                           ;EUSART_Write@txData stored from wreg
  5945  035C  00F3               	movwf	EUSART_Write@txData
  5946  035D                     l2084:	
  5947  035D                     l2086:	
  5948                           ;mcc_generated_files/eusart.c: 173: void EUSART_Write(uint8_t txData);mcc_generated_file
      +                          s/eusart.c: 174: {;mcc_generated_files/eusart.c: 175:     while(0 == eusartTxBufferRemai
      +                          ning)
  5949                           
  5950                           
  5951                           ;mcc_generated_files/eusart.c: 175:     while(0 == eusartTxBufferRemaining)
  5952  035D  0141               	movlb	1	; select bank1
  5953  035E  0860               	movf	_eusartTxBufferRemaining^(0+128),w	;volatile
  5954  035F  1903               	btfsc	3,2
  5955  0360  2B62               	goto	u761
  5956  0361  2B63               	goto	u760
  5957  0362                     u761:	
  5958  0362  2B5D               	goto	l2086
  5959  0363                     u760:	
  5960  0363                     l253:	
  5961                           
  5962                           ;mcc_generated_files/eusart.c: 179:     if(0 == PIE3bits.TXIE)
  5963  0363  014E               	movlb	14	; select bank14
  5964  0364  1A19               	btfsc	25,4	;volatile
  5965  0365  2B67               	goto	u771
  5966  0366  2B68               	goto	u770
  5967  0367                     u771:	
  5968  0367  2B6C               	goto	l254
  5969  0368                     u770:	
  5970  0368                     l2088:	
  5971                           
  5972                           ;mcc_generated_files/eusart.c: 180:     {;mcc_generated_files/eusart.c: 181:         TX1
      +                          REG = txData;
  5973  0368  0873               	movf	EUSART_Write@txData,w
  5974  0369  0142               	movlb	2	; select bank2
  5975  036A  009A               	movwf	26	;volatile
  5976                           
  5977                           ;mcc_generated_files/eusart.c: 182:     }
  5978  036B  2B84               	goto	l2100
  5979  036C                     l254:	
  5980                           ;mcc_generated_files/eusart.c: 183:     else
  5981                           
  5982                           
  5983                           ;mcc_generated_files/eusart.c: 184:     {;mcc_generated_files/eusart.c: 185:         PIE
      +                          3bits.TXIE = 0;
  5984  036C  1219               	bcf	25,4	;volatile
  5985  036D                     l2090:	
  5986                           
  5987                           ;mcc_generated_files/eusart.c: 186:         eusartTxBuffer[eusartTxHead++] = txData;
  5988  036D  0873               	movf	EUSART_Write@txData,w
  5989  036E  00F2               	movwf	??_EUSART_Write
  5990  036F  087B               	movf	_eusartTxHead,w
  5991  0370  3E20               	addlw	(low (_eusartTxBuffer| (0+256)))& (0+255)
  5992  0371  0086               	movwf	6
  5993  0372  3001               	movlw	1	; select bank2/3
  5994  0373  0087               	movwf	7
  5995  0374  0872               	movf	??_EUSART_Write,w
  5996  0375  0081               	movwf	1
  5997  0376                     l2092:	
  5998  0376  3001               	movlw	1
  5999  0377  00F2               	movwf	??_EUSART_Write
  6000  0378  0872               	movf	??_EUSART_Write,w
  6001  0379  07FB               	addwf	_eusartTxHead,f	;volatile
  6002  037A                     l2094:	
  6003                           
  6004                           ;mcc_generated_files/eusart.c: 187:         if(sizeof(eusartTxBuffer) <= eusartTxHead)
  6005  037A  3040               	movlw	64
  6006  037B  027B               	subwf	_eusartTxHead,w	;volatile
  6007  037C  1C03               	skipc
  6008  037D  2B7F               	goto	u781
  6009  037E  2B80               	goto	u780
  6010  037F                     u781:	
  6011  037F  2B81               	goto	l2098
  6012  0380                     u780:	
  6013  0380                     l2096:	
  6014                           
  6015                           ;mcc_generated_files/eusart.c: 188:         {;mcc_generated_files/eusart.c: 189:        
      +                               eusartTxHead = 0;
  6016  0380  01FB               	clrf	_eusartTxHead	;volatile
  6017  0381                     l2098:	
  6018                           
  6019                           ;mcc_generated_files/eusart.c: 191:         eusartTxBufferRemaining--;
  6020  0381  3001               	movlw	1
  6021  0382  0141               	movlb	1	; select bank1
  6022  0383  02E0               	subwf	_eusartTxBufferRemaining^(0+128),f	;volatile
  6023  0384                     l2100:	
  6024                           
  6025                           ;mcc_generated_files/eusart.c: 193:     PIE3bits.TXIE = 1;
  6026  0384  014E               	movlb	14	; select bank14
  6027  0385  1619               	bsf	25,4	;volatile
  6028  0386                     l257:	
  6029  0386  0008               	return
  6030  0387                     __end_of_EUSART_Write:	
  6031                           
  6032                           	psect	text15
  6033  044B                     __ptext15:	
  6034 ;; *************** function _ADCC_GetSingleConversion *****************
  6035 ;; Defined at:
  6036 ;;		line 132 in file "mcc_generated_files/adcc.c"
  6037 ;; Parameters:    Size  Location     Type
  6038 ;;  channel         1    wreg     enum E11669
  6039 ;; Auto vars:     Size  Location     Type
  6040 ;;  channel         1    5[COMMON] enum E11669
  6041 ;; Return value:  Size  Location     Type
  6042 ;;                  2    2[COMMON] unsigned short 
  6043 ;; Registers used:
  6044 ;;		wreg
  6045 ;; Tracked objects:
  6046 ;;		On entry : 0/0
  6047 ;;		On exit  : 0/0
  6048 ;;		Unchanged: 0/0
  6049 ;; Data sizes:     COMMON   BANK0   BANK1   BANK2   BANK3   BANK4   BANK5   BANK6   BANK7   BANK8   BANK9  BANK10  BANK1
      +1  BANK12  BANK13  BANK14  BANK15  BANK16  BANK17  BANK18  BANK19  BANK20  BANK21  BANK22  BANK23  BANK24  BANK25  BANK2
      +6  BANK27  BANK28  BANK29  BANK30  BANK31  BANK32  BANK33  BANK34  BANK35  BANK36  BANK37  BANK38  BANK39  BANK40  BANK4
      +1  BANK42  BANK43  BANK44  BANK45  BANK46  BANK47  BANK48  BANK49  BANK50
  6050 ;;      Params:         3       0       0       0       0       0       0       0       0       0       0       0       
      +0       0       0       0       0       0       0       0       0       0       0       0       0       0       0       
      +0       0       0       0       0       0       0       0       0       0       0       0       0       0       0       
      +0       0       0       0       0       0       0       0       0       0
  6051 ;;      Locals:         1       0       0       0       0       0       0       0       0       0       0       0       
      +0       0       0       0       0       0       0       0       0       0       0       0       0       0       0       
      +0       0       0       0       0       0       0       0       0       0       0       0       0       0       0       
      +0       0       0       0       0       0       0       0       0       0
  6052 ;;      Temps:          0       0       0       0       0       0       0       0       0       0       0       0       
      +0       0       0       0       0       0       0       0       0       0       0       0       0       0       0       
      +0       0       0       0       0       0       0       0       0       0       0       0       0       0       0       
      +0       0       0       0       0       0       0       0       0       0
  6053 ;;      Totals:         4       0       0       0       0       0       0       0       0       0       0       0       
      +0       0       0       0       0       0       0       0       0       0       0       0       0       0       0       
      +0       0       0       0       0       0       0       0       0       0       0       0       0       0       0       
      +0       0       0       0       0       0       0       0       0       0
  6054 ;;Total ram usage:        4 bytes
  6055 ;; Hardware stack levels used:    1
  6056 ;; Hardware stack levels required when called:    4
  6057 ;; This function calls:
  6058 ;;		Nothing
  6059 ;; This function is called by:
  6060 ;;		_main
  6061 ;; This function uses a non-reentrant model
  6062 ;;
  6063                           
  6064                           
  6065                           ;psect for function _ADCC_GetSingleConversion
  6066  044B                     _ADCC_GetSingleConversion:	
  6067                           
  6068                           ;incstack = 0
  6069                           ; Regs used in _ADCC_GetSingleConversion: [wreg]
  6070                           ;ADCC_GetSingleConversion@channel stored from wreg
  6071  044B  00F5               	movwf	ADCC_GetSingleConversion@channel
  6072  044C                     l2068:	
  6073                           
  6074                           ;mcc_generated_files/adcc.c: 132: adc_result_t ADCC_GetSingleConversion(adcc_channel_t c
      +                          hannel);mcc_generated_files/adcc.c: 133: {;mcc_generated_files/adcc.c: 135:     ADPCH = 
      +                          channel;
  6075  044C  0875               	movf	ADCC_GetSingleConversion@channel,w
  6076  044D  0141               	movlb	1	; select bank1
  6077  044E  009E               	movwf	30	;volatile
  6078  044F                     l2070:	
  6079                           
  6080                           ;mcc_generated_files/adcc.c: 138:     ADCON0bits.ADON = 1;
  6081  044F  1793               	bsf	19,7	;volatile
  6082  0450                     l2072:	
  6083                           
  6084                           ;mcc_generated_files/adcc.c: 141:     ADCON0bits.ADCONT = 0;
  6085  0450  1313               	bcf	19,6	;volatile
  6086  0451                     l2074:	
  6087                           
  6088                           ;mcc_generated_files/adcc.c: 144:     ADCON0bits.ADGO = 1;
  6089  0451  1413               	bsf	19,0	;volatile
  6090  0452                     l85:	
  6091                           ;mcc_generated_files/adcc.c: 149:     {;mcc_generated_files/adcc.c: 150:     }
  6092                           
  6093                           
  6094                           ;mcc_generated_files/adcc.c: 148:     while (ADCON0bits.ADGO)
  6095  0452  1813               	btfsc	19,0	;volatile
  6096  0453  2C55               	goto	u751
  6097  0454  2C56               	goto	u750
  6098  0455                     u751:	
  6099  0455  2C52               	goto	l85
  6100  0456                     u750:	
  6101  0456                     l2076:	
  6102                           
  6103                           ;mcc_generated_files/adcc.c: 154:     return ((adc_result_t)((ADRESH << 8) + ADRESL));
  6104  0456  080D               	movf	13,w	;volatile
  6105  0457  00F3               	movwf	?_ADCC_GetSingleConversion+1
  6106  0458  080C               	movf	12,w	;volatile
  6107  0459  00F2               	movwf	?_ADCC_GetSingleConversion
  6108  045A                     l88:	
  6109  045A  0008               	return
  6110  045B                     __end_of_ADCC_GetSingleConversion:	
  6111                           
  6112                           	psect	intentry
  6113  0004                     __pintentry:	
  6114 ;; *************** function _INTERRUPT_InterruptManager *****************
  6115 ;; Defined at:
  6116 ;;		line 52 in file "mcc_generated_files/interrupt_manager.c"
  6117 ;; Parameters:    Size  Location     Type
  6118 ;;		None
  6119 ;; Auto vars:     Size  Location     Type
  6120 ;;		None
  6121 ;; Return value:  Size  Location     Type
  6122 ;;                  1    wreg      void 
  6123 ;; Registers used:
  6124 ;;		wreg, fsr1l, fsr1h, status,2, status,0, pclath, cstack
  6125 ;; Tracked objects:
  6126 ;;		On entry : 0/0
  6127 ;;		On exit  : 0/0
  6128 ;;		Unchanged: 0/0
  6129 ;; Data sizes:     COMMON   BANK0   BANK1   BANK2   BANK3   BANK4   BANK5   BANK6   BANK7   BANK8   BANK9  BANK10  BANK1
      +1  BANK12  BANK13  BANK14  BANK15  BANK16  BANK17  BANK18  BANK19  BANK20  BANK21  BANK22  BANK23  BANK24  BANK25  BANK2
      +6  BANK27  BANK28  BANK29  BANK30  BANK31  BANK32  BANK33  BANK34  BANK35  BANK36  BANK37  BANK38  BANK39  BANK40  BANK4
      +1  BANK42  BANK43  BANK44  BANK45  BANK46  BANK47  BANK48  BANK49  BANK50
  6130 ;;      Params:         0       0       0       0       0       0       0       0       0       0       0       0       
      +0       0       0       0       0       0       0       0       0       0       0       0       0       0       0       
      +0       0       0       0       0       0       0       0       0       0       0       0       0       0       0       
      +0       0       0       0       0       0       0       0       0       0
  6131 ;;      Locals:         0       0       0       0       0       0       0       0       0       0       0       0       
      +0       0       0       0       0       0       0       0       0       0       0       0       0       0       0       
      +0       0       0       0       0       0       0       0       0       0       0       0       0       0       0       
      +0       0       0       0       0       0       0       0       0       0
  6132 ;;      Temps:          0       0       0       0       0       0       0       0       0       0       0       0       
      +0       0       0       0       0       0       0       0       0       0       0       0       0       0       0       
      +0       0       0       0       0       0       0       0       0       0       0       0       0       0       0       
      +0       0       0       0       0       0       0       0       0       0
  6133 ;;      Totals:         0       0       0       0       0       0       0       0       0       0       0       0       
      +0       0       0       0       0       0       0       0       0       0       0       0       0       0       0       
      +0       0       0       0       0       0       0       0       0       0       0       0       0       0       0       
      +0       0       0       0       0       0       0       0       0       0
  6134 ;;Total ram usage:        0 bytes
  6135 ;; Hardware stack levels used:    1
  6136 ;; Hardware stack levels required when called:    3
  6137 ;; This function calls:
  6138 ;;		Absolute function
  6139 ;;		_EUSART_Receive_ISR
  6140 ;;		_EUSART_Transmit_ISR
  6141 ;;		_UserRxInterruptHandler
  6142 ;; This function is called by:
  6143 ;;		Interrupt level 1
  6144 ;; This function uses a non-reentrant model
  6145 ;;
  6146                           
  6147  0004                     _INTERRUPT_InterruptManager:	
  6148                           
  6149                           ;incstack = 0
  6150  0004  147E               	bsf	int$flags,0	;set compiler interrupt flag (level 1)
  6151                           
  6152                           ; Regs used in _INTERRUPT_InterruptManager: [wreg+fsr1l+fsr1h+status,2+status,0+pclath+c
      +                          stack]
  6153  0005  3180               	pagesel	$
  6154  0006                     i1l1826:	
  6155                           
  6156                           ;mcc_generated_files/interrupt_manager.c: 55:     if(INTCONbits.PEIE == 1)
  6157  0006  1F0B               	btfss	11,6	;volatile
  6158  0007  2809               	goto	u56_21
  6159  0008  280A               	goto	u56_20
  6160  0009                     u56_21:	
  6161  0009  2829               	goto	i1l319
  6162  000A                     u56_20:	
  6163  000A                     i1l1828:	
  6164                           
  6165                           ;mcc_generated_files/interrupt_manager.c: 56:     {;mcc_generated_files/interrupt_manage
      +                          r.c: 57:         if(PIE3bits.TXIE == 1 && PIR3bits.TXIF == 1)
  6166  000A  014E               	movlb	14	; select bank14
  6167  000B  1E19               	btfss	25,4	;volatile
  6168  000C  280E               	goto	u57_21
  6169  000D  280F               	goto	u57_20
  6170  000E                     u57_21:	
  6171  000E  281A               	goto	i1l314
  6172  000F                     u57_20:	
  6173  000F                     i1l1830:	
  6174  000F  1E0F               	btfss	15,4	;volatile
  6175  0010  2812               	goto	u58_21
  6176  0011  2813               	goto	u58_20
  6177  0012                     u58_21:	
  6178  0012  281A               	goto	i1l314
  6179  0013                     u58_20:	
  6180  0013                     i1l1832:	
  6181                           
  6182                           ;mcc_generated_files/interrupt_manager.c: 58:         {;mcc_generated_files/interrupt_ma
      +                          nager.c: 59:             EUSART_TxDefaultInterruptHandler();
  6183  0013  0141               	movlb	1	; select bank1
  6184  0014  085F               	movf	(_EUSART_TxDefaultInterruptHandler+1)^(0+128),w
  6185  0015  008A               	movwf	10
  6186  0016  085E               	movf	_EUSART_TxDefaultInterruptHandler^(0+128),w
  6187  0017  000A               	callw
  6188  0018  3180               	pagesel	$
  6189                           
  6190                           ;mcc_generated_files/interrupt_manager.c: 60:         }
  6191  0019  2829               	goto	i1l319
  6192  001A                     i1l314:	
  6193                           ;mcc_generated_files/interrupt_manager.c: 61:         else if(PIE3bits.RCIE == 1 && PIR3
      +                          bits.RCIF == 1)
  6194                           
  6195  001A  1E99               	btfss	25,5	;volatile
  6196  001B  281D               	goto	u59_21
  6197  001C  281E               	goto	u59_20
  6198  001D                     u59_21:	
  6199  001D  2829               	goto	i1l315
  6200  001E                     u59_20:	
  6201  001E                     i1l1834:	
  6202  001E  1E8F               	btfss	15,5	;volatile
  6203  001F  2821               	goto	u60_21
  6204  0020  2822               	goto	u60_20
  6205  0021                     u60_21:	
  6206  0021  2829               	goto	i1l315
  6207  0022                     u60_20:	
  6208  0022                     i1l1836:	
  6209                           
  6210                           ;mcc_generated_files/interrupt_manager.c: 62:         {;mcc_generated_files/interrupt_ma
      +                          nager.c: 63:             EUSART_RxDefaultInterruptHandler();
  6211  0022  0141               	movlb	1	; select bank1
  6212  0023  085D               	movf	(_EUSART_RxDefaultInterruptHandler+1)^(0+128),w
  6213  0024  008A               	movwf	10
  6214  0025  085C               	movf	_EUSART_RxDefaultInterruptHandler^(0+128),w
  6215  0026  000A               	callw
  6216  0027  3180               	pagesel	$
  6217                           
  6218                           ;mcc_generated_files/interrupt_manager.c: 64:         }
  6219  0028  2829               	goto	i1l319
  6220  0029                     i1l315:	
  6221  0029                     i1l319:	
  6222                           ;mcc_generated_files/interrupt_manager.c: 69:     }
  6223                           
  6224  0029  107E               	bcf	int$flags,0	;clear compiler interrupt flag (level 1)
  6225  002A  0009               	retfie
  6226  002B                     __end_of_INTERRUPT_InterruptManager:	
  6227                           
  6228                           	psect	text17
  6229  02F6                     __ptext17:	
  6230 ;; *************** function _EUSART_Receive_ISR *****************
  6231 ;; Defined at:
  6232 ;;		line 216 in file "mcc_generated_files/eusart.c"
  6233 ;; Parameters:    Size  Location     Type
  6234 ;;		None
  6235 ;; Auto vars:     Size  Location     Type
  6236 ;;		None
  6237 ;; Return value:  Size  Location     Type
  6238 ;;                  1    wreg      void 
  6239 ;; Registers used:
  6240 ;;		wreg, fsr1l, fsr1h, status,2, status,0, pclath, cstack
  6241 ;; Tracked objects:
  6242 ;;		On entry : 0/0
  6243 ;;		On exit  : 0/0
  6244 ;;		Unchanged: 0/0
  6245 ;; Data sizes:     COMMON   BANK0   BANK1   BANK2   BANK3   BANK4   BANK5   BANK6   BANK7   BANK8   BANK9  BANK10  BANK1
      +1  BANK12  BANK13  BANK14  BANK15  BANK16  BANK17  BANK18  BANK19  BANK20  BANK21  BANK22  BANK23  BANK24  BANK25  BANK2
      +6  BANK27  BANK28  BANK29  BANK30  BANK31  BANK32  BANK33  BANK34  BANK35  BANK36  BANK37  BANK38  BANK39  BANK40  BANK4
      +1  BANK42  BANK43  BANK44  BANK45  BANK46  BANK47  BANK48  BANK49  BANK50
  6246 ;;      Params:         0       0       0       0       0       0       0       0       0       0       0       0       
      +0       0       0       0       0       0       0       0       0       0       0       0       0       0       0       
      +0       0       0       0       0       0       0       0       0       0       0       0       0       0       0       
      +0       0       0       0       0       0       0       0       0       0
  6247 ;;      Locals:         0       0       0       0       0       0       0       0       0       0       0       0       
      +0       0       0       0       0       0       0       0       0       0       0       0       0       0       0       
      +0       0       0       0       0       0       0       0       0       0       0       0       0       0       0       
      +0       0       0       0       0       0       0       0       0       0
  6248 ;;      Temps:          0       0       0       0       0       0       0       0       0       0       0       0       
      +0       0       0       0       0       0       0       0       0       0       0       0       0       0       0       
      +0       0       0       0       0       0       0       0       0       0       0       0       0       0       0       
      +0       0       0       0       0       0       0       0       0       0
  6249 ;;      Totals:         0       0       0       0       0       0       0       0       0       0       0       0       
      +0       0       0       0       0       0       0       0       0       0       0       0       0       0       0       
      +0       0       0       0       0       0       0       0       0       0       0       0       0       0       0       
      +0       0       0       0       0       0       0       0       0       0
  6250 ;;Total ram usage:        0 bytes
  6251 ;; Hardware stack levels used:    1
  6252 ;; Hardware stack levels required when called:    2
  6253 ;; This function calls:
  6254 ;;		Absolute function
  6255 ;;		_EUSART_DefaultErrorHandler
  6256 ;;		_EUSART_DefaultFramingErrorHandler
  6257 ;;		_EUSART_DefaultOverrunErrorHandler
  6258 ;;		_EUSART_RxDataHandler
  6259 ;; This function is called by:
  6260 ;;		_EUSART_Initialize
  6261 ;;		_INTERRUPT_InterruptManager
  6262 ;; This function uses a non-reentrant model
  6263 ;;
  6264                           
  6265                           
  6266                           ;psect for function _EUSART_Receive_ISR
  6267  02F6                     _EUSART_Receive_ISR:	
  6268  02F6                     i1l1766:	
  6269                           ;incstack = 0
  6270                           ; Regs used in _EUSART_Receive_ISR: [wreg+fsr1l+fsr1h+status,2+status,0+pclath+cstack]
  6271                           
  6272                           
  6273                           ;mcc_generated_files/eusart.c: 219:     eusartRxStatusBuffer[eusartRxHead].status = 0;
  6274  02F6  087A               	movf	_eusartRxHead,w	;volatile
  6275  02F7  3EA0               	addlw	(low (_eusartRxStatusBuffer| 0))& (0+255)
  6276  02F8  0086               	movwf	6
  6277  02F9  0187               	clrf	7
  6278  02FA  0181               	clrf	1
  6279  02FB                     i1l1768:	
  6280                           
  6281                           ;mcc_generated_files/eusart.c: 221:     if(RC1STAbits.FERR){
  6282  02FB  0142               	movlb	2	; select bank2
  6283  02FC  1D1D               	btfss	29,2	;volatile
  6284  02FD  2AFF               	goto	u47_21
  6285  02FE  2B00               	goto	u47_20
  6286  02FF                     u47_21:	
  6287  02FF  2B0B               	goto	i1l1774
  6288  0300                     u47_20:	
  6289  0300                     i1l1770:	
  6290                           
  6291                           ;mcc_generated_files/eusart.c: 222:         eusartRxStatusBuffer[eusartRxHead].ferr = 1;
  6292  0300  087A               	movf	_eusartRxHead,w	;volatile
  6293  0301  3EA0               	addlw	(low (_eusartRxStatusBuffer| 0))& (0+255)
  6294  0302  0086               	movwf	6
  6295  0303  0187               	clrf	7
  6296  0304  1481               	bsf	1,1
  6297  0305                     i1l1772:	
  6298                           
  6299                           ;mcc_generated_files/eusart.c: 223:         EUSART_FramingErrorHandler();
  6300  0305  0141               	movlb	1	; select bank1
  6301  0306  085B               	movf	(_EUSART_FramingErrorHandler+1)^(0+128),w
  6302  0307  008A               	movwf	10
  6303  0308  085A               	movf	_EUSART_FramingErrorHandler^(0+128),w
  6304  0309  000A               	callw
  6305  030A  3182               	pagesel	$
  6306  030B                     i1l1774:	
  6307                           
  6308                           ;mcc_generated_files/eusart.c: 226:     if(RC1STAbits.OERR){
  6309  030B  0142               	movlb	2	; select bank2
  6310  030C  1C9D               	btfss	29,1	;volatile
  6311  030D  2B0F               	goto	u48_21
  6312  030E  2B10               	goto	u48_20
  6313  030F                     u48_21:	
  6314  030F  2B1B               	goto	i1l1780
  6315  0310                     u48_20:	
  6316  0310                     i1l1776:	
  6317                           
  6318                           ;mcc_generated_files/eusart.c: 227:         eusartRxStatusBuffer[eusartRxHead].oerr = 1;
  6319  0310  087A               	movf	_eusartRxHead,w	;volatile
  6320  0311  3EA0               	addlw	(low (_eusartRxStatusBuffer| 0))& (0+255)
  6321  0312  0086               	movwf	6
  6322  0313  0187               	clrf	7
  6323  0314  1501               	bsf	1,2
  6324  0315                     i1l1778:	
  6325                           
  6326                           ;mcc_generated_files/eusart.c: 228:         EUSART_OverrunErrorHandler();
  6327  0315  0141               	movlb	1	; select bank1
  6328  0316  0859               	movf	(_EUSART_OverrunErrorHandler+1)^(0+128),w
  6329  0317  008A               	movwf	10
  6330  0318  0858               	movf	_EUSART_OverrunErrorHandler^(0+128),w
  6331  0319  000A               	callw
  6332  031A  3182               	pagesel	$
  6333  031B                     i1l1780:	
  6334                           
  6335                           ;mcc_generated_files/eusart.c: 231:     if(eusartRxStatusBuffer[eusartRxHead].status){
  6336  031B  087A               	movf	_eusartRxHead,w	;volatile
  6337  031C  3EA0               	addlw	(low (_eusartRxStatusBuffer| 0))& (0+255)
  6338  031D  0086               	movwf	6
  6339  031E  0187               	clrf	7
  6340  031F  0801               	movf	1,w
  6341  0320  1903               	btfsc	3,2
  6342  0321  2B23               	goto	u49_21
  6343  0322  2B24               	goto	u49_20
  6344  0323                     u49_21:	
  6345  0323  2B2B               	goto	i1l1784
  6346  0324                     u49_20:	
  6347  0324                     i1l1782:	
  6348                           
  6349                           ;mcc_generated_files/eusart.c: 232:         EUSART_ErrorHandler();
  6350  0324  0141               	movlb	1	; select bank1
  6351  0325  0857               	movf	(_EUSART_ErrorHandler+1)^(0+128),w
  6352  0326  008A               	movwf	10
  6353  0327  0856               	movf	_EUSART_ErrorHandler^(0+128),w
  6354  0328  000A               	callw
  6355  0329  3182               	pagesel	$
  6356                           
  6357                           ;mcc_generated_files/eusart.c: 233:     } else {
  6358  032A  2B2E               	goto	i1l270
  6359  032B                     i1l1784:	
  6360                           
  6361                           ;mcc_generated_files/eusart.c: 234:         EUSART_RxDataHandler();
  6362  032B  3183  23F8  3182   	fcall	_EUSART_RxDataHandler
  6363  032E                     i1l270:	
  6364  032E  0008               	return
  6365  032F                     __end_of_EUSART_Receive_ISR:	
  6366                           
  6367                           	psect	text18
  6368  0273                     __ptext18:	
  6369 ;; *************** function _UserRxInterruptHandler *****************
  6370 ;; Defined at:
  6371 ;;		line 192 in file "main.c"
  6372 ;; Parameters:    Size  Location     Type
  6373 ;;		None
  6374 ;; Auto vars:     Size  Location     Type
  6375 ;;		None
  6376 ;; Return value:  Size  Location     Type
  6377 ;;                  1    wreg      void 
  6378 ;; Registers used:
  6379 ;;		wreg, fsr1l, fsr1h, status,2, status,0, pclath, cstack
  6380 ;; Tracked objects:
  6381 ;;		On entry : 0/0
  6382 ;;		On exit  : 0/0
  6383 ;;		Unchanged: 0/0
  6384 ;; Data sizes:     COMMON   BANK0   BANK1   BANK2   BANK3   BANK4   BANK5   BANK6   BANK7   BANK8   BANK9  BANK10  BANK1
      +1  BANK12  BANK13  BANK14  BANK15  BANK16  BANK17  BANK18  BANK19  BANK20  BANK21  BANK22  BANK23  BANK24  BANK25  BANK2
      +6  BANK27  BANK28  BANK29  BANK30  BANK31  BANK32  BANK33  BANK34  BANK35  BANK36  BANK37  BANK38  BANK39  BANK40  BANK4
      +1  BANK42  BANK43  BANK44  BANK45  BANK46  BANK47  BANK48  BANK49  BANK50
  6385 ;;      Params:         0       0       0       0       0       0       0       0       0       0       0       0       
      +0       0       0       0       0       0       0       0       0       0       0       0       0       0       0       
      +0       0       0       0       0       0       0       0       0       0       0       0       0       0       0       
      +0       0       0       0       0       0       0       0       0       0
  6386 ;;      Locals:         0       0       0       0       0       0       0       0       0       0       0       0       
      +0       0       0       0       0       0       0       0       0       0       0       0       0       0       0       
      +0       0       0       0       0       0       0       0       0       0       0       0       0       0       0       
      +0       0       0       0       0       0       0       0       0       0
  6387 ;;      Temps:          0       0       0       0       0       0       0       0       0       0       0       0       
      +0       0       0       0       0       0       0       0       0       0       0       0       0       0       0       
      +0       0       0       0       0       0       0       0       0       0       0       0       0       0       0       
      +0       0       0       0       0       0       0       0       0       0
  6388 ;;      Totals:         0       0       0       0       0       0       0       0       0       0       0       0       
      +0       0       0       0       0       0       0       0       0       0       0       0       0       0       0       
      +0       0       0       0       0       0       0       0       0       0       0       0       0       0       0       
      +0       0       0       0       0       0       0       0       0       0
  6389 ;;Total ram usage:        0 bytes
  6390 ;; Hardware stack levels used:    1
  6391 ;; Hardware stack levels required when called:    2
  6392 ;; This function calls:
  6393 ;;		Absolute function
  6394 ;;		_EUSART_DefaultErrorHandler
  6395 ;;		_EUSART_DefaultFramingErrorHandler
  6396 ;;		_EUSART_DefaultOverrunErrorHandler
  6397 ;;		_EUSART_Read
  6398 ;;		_EUSART_RxDataHandler
  6399 ;; This function is called by:
  6400 ;;		_main
  6401 ;;		_INTERRUPT_InterruptManager
  6402 ;; This function uses a non-reentrant model
  6403 ;;
  6404                           
  6405                           
  6406                           ;psect for function _UserRxInterruptHandler
  6407  0273                     _UserRxInterruptHandler:	
  6408  0273                     i1l1804:	
  6409                           ;incstack = 0
  6410                           ; Regs used in _UserRxInterruptHandler: [wreg+fsr1l+fsr1h+status,2+status,0+pclath+cstac
      +                          k]
  6411                           
  6412                           
  6413                           ;main.c: 195:   eusartRxStatusBuffer[eusartRxHead].status = 0;
  6414  0273  087A               	movf	_eusartRxHead,w	;volatile
  6415  0274  3EA0               	addlw	(low (_eusartRxStatusBuffer| 0))& (0+255)
  6416  0275  0086               	movwf	6
  6417  0276  0187               	clrf	7
  6418  0277  0181               	clrf	1
  6419  0278                     i1l1806:	
  6420                           
  6421                           ;main.c: 197:   if(RC1STAbits.FERR){
  6422  0278  0142               	movlb	2	; select bank2
  6423  0279  1D1D               	btfss	29,2	;volatile
  6424  027A  2A7C               	goto	u52_21
  6425  027B  2A7D               	goto	u52_20
  6426  027C                     u52_21:	
  6427  027C  2A88               	goto	i1l1812
  6428  027D                     u52_20:	
  6429  027D                     i1l1808:	
  6430                           
  6431                           ;main.c: 198:       eusartRxStatusBuffer[eusartRxHead].ferr = 1;
  6432  027D  087A               	movf	_eusartRxHead,w	;volatile
  6433  027E  3EA0               	addlw	(low (_eusartRxStatusBuffer| 0))& (0+255)
  6434  027F  0086               	movwf	6
  6435  0280  0187               	clrf	7
  6436  0281  1481               	bsf	1,1
  6437  0282                     i1l1810:	
  6438                           
  6439                           ;main.c: 199:       EUSART_FramingErrorHandler();
  6440  0282  0141               	movlb	1	; select bank1
  6441  0283  085B               	movf	(_EUSART_FramingErrorHandler+1)^(0+128),w
  6442  0284  008A               	movwf	10
  6443  0285  085A               	movf	_EUSART_FramingErrorHandler^(0+128),w
  6444  0286  000A               	callw
  6445  0287  3182               	pagesel	$
  6446  0288                     i1l1812:	
  6447                           
  6448                           ;main.c: 202:   if(RC1STAbits.OERR){
  6449  0288  0142               	movlb	2	; select bank2
  6450  0289  1C9D               	btfss	29,1	;volatile
  6451  028A  2A8C               	goto	u53_21
  6452  028B  2A8D               	goto	u53_20
  6453  028C                     u53_21:	
  6454  028C  2A98               	goto	i1l1818
  6455  028D                     u53_20:	
  6456  028D                     i1l1814:	
  6457                           
  6458                           ;main.c: 203:       eusartRxStatusBuffer[eusartRxHead].oerr = 1;
  6459  028D  087A               	movf	_eusartRxHead,w	;volatile
  6460  028E  3EA0               	addlw	(low (_eusartRxStatusBuffer| 0))& (0+255)
  6461  028F  0086               	movwf	6
  6462  0290  0187               	clrf	7
  6463  0291  1501               	bsf	1,2
  6464  0292                     i1l1816:	
  6465                           
  6466                           ;main.c: 204:       EUSART_OverrunErrorHandler();
  6467  0292  0141               	movlb	1	; select bank1
  6468  0293  0859               	movf	(_EUSART_OverrunErrorHandler+1)^(0+128),w
  6469  0294  008A               	movwf	10
  6470  0295  0858               	movf	_EUSART_OverrunErrorHandler^(0+128),w
  6471  0296  000A               	callw
  6472  0297  3182               	pagesel	$
  6473  0298                     i1l1818:	
  6474                           
  6475                           ;main.c: 207:   if(eusartRxStatusBuffer[eusartRxHead].status){
  6476  0298  087A               	movf	_eusartRxHead,w	;volatile
  6477  0299  3EA0               	addlw	(low (_eusartRxStatusBuffer| 0))& (0+255)
  6478  029A  0086               	movwf	6
  6479  029B  0187               	clrf	7
  6480  029C  0801               	movf	1,w
  6481  029D  1903               	btfsc	3,2
  6482  029E  2AA0               	goto	u54_21
  6483  029F  2AA1               	goto	u54_20
  6484  02A0                     u54_21:	
  6485  02A0  2AA8               	goto	i1l1822
  6486  02A1                     u54_20:	
  6487  02A1                     i1l1820:	
  6488                           
  6489                           ;main.c: 208:       EUSART_ErrorHandler();
  6490  02A1  0141               	movlb	1	; select bank1
  6491  02A2  0857               	movf	(_EUSART_ErrorHandler+1)^(0+128),w
  6492  02A3  008A               	movwf	10
  6493  02A4  0856               	movf	_EUSART_ErrorHandler^(0+128),w
  6494  02A5  000A               	callw
  6495  02A6  3182               	pagesel	$
  6496                           
  6497                           ;main.c: 209:   } else {
  6498  02A7  2AAB               	goto	i1l500
  6499  02A8                     i1l1822:	
  6500                           
  6501                           ;main.c: 210:       EUSART_RxDataHandler();
  6502  02A8  3183  23F8  3182   	fcall	_EUSART_RxDataHandler
  6503  02AB                     i1l500:	
  6504                           ;main.c: 211:   }
  6505                           
  6506                           
  6507                           ;main.c: 216:   if (EUSART_Read() == 0x31)
  6508  02AB  3183  2387  3182   	fcall	_EUSART_Read
  6509  02AE  3A31               	xorlw	49
  6510  02AF  1D03               	skipz
  6511  02B0  2AB2               	goto	u55_21
  6512  02B1  2AB3               	goto	u55_20
  6513  02B2                     u55_21:	
  6514  02B2  2AB6               	goto	i1l502
  6515  02B3                     u55_20:	
  6516  02B3                     i1l1824:	
  6517                           
  6518                           ;main.c: 217:   {;main.c: 218:     tx_request = 1;
  6519  02B3  0141               	movlb	1	; select bank1
  6520  02B4  01B0               	clrf	_tx_request^(0+128)
  6521  02B5  0AB0               	incf	_tx_request^(0+128),f
  6522  02B6                     i1l502:	
  6523  02B6  0008               	return
  6524  02B7                     __end_of_UserRxInterruptHandler:	
  6525                           
  6526                           	psect	text19
  6527  0387                     __ptext19:	
  6528 ;; *************** function _EUSART_Read *****************
  6529 ;; Defined at:
  6530 ;;		line 151 in file "mcc_generated_files/eusart.c"
  6531 ;; Parameters:    Size  Location     Type
  6532 ;;		None
  6533 ;; Auto vars:     Size  Location     Type
  6534 ;;  readValue       1    1[COMMON] unsigned char 
  6535 ;; Return value:  Size  Location     Type
  6536 ;;                  1    wreg      unsigned char 
  6537 ;; Registers used:
  6538 ;;		wreg, fsr1l, fsr1h, status,2, status,0
  6539 ;; Tracked objects:
  6540 ;;		On entry : 0/0
  6541 ;;		On exit  : 0/0
  6542 ;;		Unchanged: 0/0
  6543 ;; Data sizes:     COMMON   BANK0   BANK1   BANK2   BANK3   BANK4   BANK5   BANK6   BANK7   BANK8   BANK9  BANK10  BANK1
      +1  BANK12  BANK13  BANK14  BANK15  BANK16  BANK17  BANK18  BANK19  BANK20  BANK21  BANK22  BANK23  BANK24  BANK25  BANK2
      +6  BANK27  BANK28  BANK29  BANK30  BANK31  BANK32  BANK33  BANK34  BANK35  BANK36  BANK37  BANK38  BANK39  BANK40  BANK4
      +1  BANK42  BANK43  BANK44  BANK45  BANK46  BANK47  BANK48  BANK49  BANK50
  6544 ;;      Params:         0       0       0       0       0       0       0       0       0       0       0       0       
      +0       0       0       0       0       0       0       0       0       0       0       0       0       0       0       
      +0       0       0       0       0       0       0       0       0       0       0       0       0       0       0       
      +0       0       0       0       0       0       0       0       0       0
  6545 ;;      Locals:         1       0       0       0       0       0       0       0       0       0       0       0       
      +0       0       0       0       0       0       0       0       0       0       0       0       0       0       0       
      +0       0       0       0       0       0       0       0       0       0       0       0       0       0       0       
      +0       0       0       0       0       0       0       0       0       0
  6546 ;;      Temps:          1       0       0       0       0       0       0       0       0       0       0       0       
      +0       0       0       0       0       0       0       0       0       0       0       0       0       0       0       
      +0       0       0       0       0       0       0       0       0       0       0       0       0       0       0       
      +0       0       0       0       0       0       0       0       0       0
  6547 ;;      Totals:         2       0       0       0       0       0       0       0       0       0       0       0       
      +0       0       0       0       0       0       0       0       0       0       0       0       0       0       0       
      +0       0       0       0       0       0       0       0       0       0       0       0       0       0       0       
      +0       0       0       0       0       0       0       0       0       0
  6548 ;;Total ram usage:        2 bytes
  6549 ;; Hardware stack levels used:    1
  6550 ;; This function calls:
  6551 ;;		Nothing
  6552 ;; This function is called by:
  6553 ;;		_UserRxInterruptHandler
  6554 ;; This function uses a non-reentrant model
  6555 ;;
  6556                           
  6557                           
  6558                           ;psect for function _EUSART_Read
  6559  0387                     _EUSART_Read:	
  6560  0387                     i1l1652:	
  6561                           ;incstack = 0
  6562                           ; Regs used in _EUSART_Read: [wreg+fsr1l+fsr1h+status,2+status,0]
  6563                           
  6564  0387                     i1l1654:	
  6565                           ;mcc_generated_files/eusart.c: 155:     while(0 == eusartRxCount)
  6566                           
  6567                           
  6568                           ;mcc_generated_files/eusart.c: 155:     while(0 == eusartRxCount)
  6569  0387  0141               	movlb	1	; select bank1
  6570  0388  0832               	movf	_eusartRxCount^(0+128),w	;volatile
  6571  0389  1903               	btfsc	3,2
  6572  038A  2B8C               	goto	u39_21
  6573  038B  2B8D               	goto	u39_20
  6574  038C                     u39_21:	
  6575  038C  2B87               	goto	i1l1654
  6576  038D                     u39_20:	
  6577  038D                     i1l1656:	
  6578                           
  6579                           ;mcc_generated_files/eusart.c: 159:     eusartRxLastError = eusartRxStatusBuffer[eusartR
      +                          xTail];
  6580  038D  0879               	movf	_eusartRxTail,w	;volatile
  6581  038E  3EA0               	addlw	(low (_eusartRxStatusBuffer| 0))& (0+255)
  6582  038F  0086               	movwf	6
  6583  0390  0187               	clrf	7
  6584  0391  0801               	movf	1,w
  6585  0392  00F0               	movwf	??_EUSART_Read
  6586  0393  0870               	movf	??_EUSART_Read,w
  6587  0394  00B1               	movwf	_eusartRxLastError^(0+128)	;volatile
  6588                           
  6589                           ;mcc_generated_files/eusart.c: 161:     readValue = eusartRxBuffer[eusartRxTail++];
  6590  0395  0879               	movf	_eusartRxTail,w
  6591  0396  3EA8               	addlw	(low (_eusartRxBuffer| 0))& (0+255)
  6592  0397  0086               	movwf	6
  6593  0398  0187               	clrf	7
  6594  0399  0801               	movf	1,w
  6595  039A  00F0               	movwf	??_EUSART_Read
  6596  039B  0870               	movf	??_EUSART_Read,w
  6597  039C  00F1               	movwf	EUSART_Read@readValue
  6598  039D                     i1l1658:	
  6599  039D  3001               	movlw	1
  6600  039E  00F0               	movwf	??_EUSART_Read
  6601  039F  0870               	movf	??_EUSART_Read,w
  6602  03A0  07F9               	addwf	_eusartRxTail,f	;volatile
  6603  03A1                     i1l1660:	
  6604                           
  6605                           ;mcc_generated_files/eusart.c: 162:     if(sizeof(eusartRxBuffer) <= eusartRxTail)
  6606  03A1  3008               	movlw	8
  6607  03A2  0279               	subwf	_eusartRxTail,w	;volatile
  6608  03A3  1C03               	skipc
  6609  03A4  2BA6               	goto	u40_21
  6610  03A5  2BA7               	goto	u40_20
  6611  03A6                     u40_21:	
  6612  03A6  2BA8               	goto	i1l1664
  6613  03A7                     u40_20:	
  6614  03A7                     i1l1662:	
  6615                           
  6616                           ;mcc_generated_files/eusart.c: 163:     {;mcc_generated_files/eusart.c: 164:         eus
      +                          artRxTail = 0;
  6617  03A7  01F9               	clrf	_eusartRxTail	;volatile
  6618  03A8                     i1l1664:	
  6619                           
  6620                           ;mcc_generated_files/eusart.c: 166:     PIE3bits.RCIE = 0;
  6621  03A8  014E               	movlb	14	; select bank14
  6622  03A9  1299               	bcf	25,5	;volatile
  6623  03AA                     i1l1666:	
  6624                           
  6625                           ;mcc_generated_files/eusart.c: 167:     eusartRxCount--;
  6626  03AA  3001               	movlw	1
  6627  03AB  0141               	movlb	1	; select bank1
  6628  03AC  02B2               	subwf	_eusartRxCount^(0+128),f	;volatile
  6629  03AD                     i1l1668:	
  6630                           
  6631                           ;mcc_generated_files/eusart.c: 168:     PIE3bits.RCIE = 1;
  6632  03AD  014E               	movlb	14	; select bank14
  6633  03AE  1699               	bsf	25,5	;volatile
  6634  03AF                     i1l1670:	
  6635                           
  6636                           ;mcc_generated_files/eusart.c: 170:     return readValue;
  6637  03AF  0871               	movf	EUSART_Read@readValue,w
  6638  03B0                     i1l248:	
  6639  03B0  0008               	return
  6640  03B1                     __end_of_EUSART_Read:	
  6641                           
  6642                           	psect	text20
  6643  03D5                     __ptext20:	
  6644 ;; *************** function _EUSART_Transmit_ISR *****************
  6645 ;; Defined at:
  6646 ;;		line 197 in file "mcc_generated_files/eusart.c"
  6647 ;; Parameters:    Size  Location     Type
  6648 ;;		None
  6649 ;; Auto vars:     Size  Location     Type
  6650 ;;		None
  6651 ;; Return value:  Size  Location     Type
  6652 ;;                  1    wreg      void 
  6653 ;; Registers used:
  6654 ;;		wreg, fsr1l, fsr1h, status,2, status,0
  6655 ;; Tracked objects:
  6656 ;;		On entry : 0/0
  6657 ;;		On exit  : 0/0
  6658 ;;		Unchanged: 0/0
  6659 ;; Data sizes:     COMMON   BANK0   BANK1   BANK2   BANK3   BANK4   BANK5   BANK6   BANK7   BANK8   BANK9  BANK10  BANK1
      +1  BANK12  BANK13  BANK14  BANK15  BANK16  BANK17  BANK18  BANK19  BANK20  BANK21  BANK22  BANK23  BANK24  BANK25  BANK2
      +6  BANK27  BANK28  BANK29  BANK30  BANK31  BANK32  BANK33  BANK34  BANK35  BANK36  BANK37  BANK38  BANK39  BANK40  BANK4
      +1  BANK42  BANK43  BANK44  BANK45  BANK46  BANK47  BANK48  BANK49  BANK50
  6660 ;;      Params:         0       0       0       0       0       0       0       0       0       0       0       0       
      +0       0       0       0       0       0       0       0       0       0       0       0       0       0       0       
      +0       0       0       0       0       0       0       0       0       0       0       0       0       0       0       
      +0       0       0       0       0       0       0       0       0       0
  6661 ;;      Locals:         0       0       0       0       0       0       0       0       0       0       0       0       
      +0       0       0       0       0       0       0       0       0       0       0       0       0       0       0       
      +0       0       0       0       0       0       0       0       0       0       0       0       0       0       0       
      +0       0       0       0       0       0       0       0       0       0
  6662 ;;      Temps:          1       0       0       0       0       0       0       0       0       0       0       0       
      +0       0       0       0       0       0       0       0       0       0       0       0       0       0       0       
      +0       0       0       0       0       0       0       0       0       0       0       0       0       0       0       
      +0       0       0       0       0       0       0       0       0       0
  6663 ;;      Totals:         1       0       0       0       0       0       0       0       0       0       0       0       
      +0       0       0       0       0       0       0       0       0       0       0       0       0       0       0       
      +0       0       0       0       0       0       0       0       0       0       0       0       0       0       0       
      +0       0       0       0       0       0       0       0       0       0
  6664 ;;Total ram usage:        1 bytes
  6665 ;; Hardware stack levels used:    1
  6666 ;; This function calls:
  6667 ;;		Nothing
  6668 ;; This function is called by:
  6669 ;;		_EUSART_Initialize
  6670 ;;		_INTERRUPT_InterruptManager
  6671 ;; This function uses a non-reentrant model
  6672 ;;
  6673                           
  6674                           
  6675                           ;psect for function _EUSART_Transmit_ISR
  6676  03D5                     _EUSART_Transmit_ISR:	
  6677  03D5                     i1l1754:	
  6678                           ;incstack = 0
  6679                           ; Regs used in _EUSART_Transmit_ISR: [wreg+fsr1l+fsr1h+status,2+status,0]
  6680                           
  6681                           
  6682                           ;mcc_generated_files/eusart.c: 201:     if(sizeof(eusartTxBuffer) > eusartTxBufferRemain
      +                          ing)
  6683  03D5  3040               	movlw	64
  6684  03D6  0141               	movlb	1	; select bank1
  6685  03D7  0260               	subwf	_eusartTxBufferRemaining^(0+128),w	;volatile
  6686  03D8  1803               	skipnc
  6687  03D9  2BDB               	goto	u45_21
  6688  03DA  2BDC               	goto	u45_20
  6689  03DB                     u45_21:	
  6690  03DB  2BF5               	goto	i1l260
  6691  03DC                     u45_20:	
  6692  03DC                     i1l1756:	
  6693                           
  6694                           ;mcc_generated_files/eusart.c: 202:     {;mcc_generated_files/eusart.c: 203:         TX1
      +                          REG = eusartTxBuffer[eusartTxTail++];
  6695  03DC  0833               	movf	_eusartTxTail^(0+128),w
  6696  03DD  3E20               	addlw	(low (_eusartTxBuffer| (0+256)))& (0+255)
  6697  03DE  0086               	movwf	6
  6698  03DF  3001               	movlw	1	; select bank2/3
  6699  03E0  0087               	movwf	7
  6700  03E1  0801               	movf	1,w
  6701  03E2  0142               	movlb	2	; select bank2
  6702  03E3  009A               	movwf	26	;volatile
  6703  03E4                     i1l1758:	
  6704  03E4  3001               	movlw	1
  6705  03E5  00F0               	movwf	??_EUSART_Transmit_ISR
  6706  03E6  0870               	movf	??_EUSART_Transmit_ISR,w
  6707  03E7  0141               	movlb	1	; select bank1
  6708  03E8  07B3               	addwf	_eusartTxTail^(0+128),f	;volatile
  6709  03E9                     i1l1760:	
  6710                           
  6711                           ;mcc_generated_files/eusart.c: 204:         if(sizeof(eusartTxBuffer) <= eusartTxTail)
  6712  03E9  3040               	movlw	64
  6713  03EA  0233               	subwf	_eusartTxTail^(0+128),w	;volatile
  6714  03EB  1C03               	skipc
  6715  03EC  2BEE               	goto	u46_21
  6716  03ED  2BEF               	goto	u46_20
  6717  03EE                     u46_21:	
  6718  03EE  2BF0               	goto	i1l1764
  6719  03EF                     u46_20:	
  6720  03EF                     i1l1762:	
  6721                           
  6722                           ;mcc_generated_files/eusart.c: 205:         {;mcc_generated_files/eusart.c: 206:        
      +                               eusartTxTail = 0;
  6723  03EF  01B3               	clrf	_eusartTxTail^(0+128)	;volatile
  6724  03F0                     i1l1764:	
  6725                           
  6726                           ;mcc_generated_files/eusart.c: 208:         eusartTxBufferRemaining++;
  6727  03F0  3001               	movlw	1
  6728  03F1  00F0               	movwf	??_EUSART_Transmit_ISR
  6729  03F2  0870               	movf	??_EUSART_Transmit_ISR,w
  6730  03F3  07E0               	addwf	_eusartTxBufferRemaining^(0+128),f	;volatile
  6731                           
  6732                           ;mcc_generated_files/eusart.c: 209:     }
  6733  03F4  2BF7               	goto	i1l263
  6734  03F5                     i1l260:	
  6735                           ;mcc_generated_files/eusart.c: 210:     else
  6736                           
  6737                           
  6738                           ;mcc_generated_files/eusart.c: 211:     {;mcc_generated_files/eusart.c: 212:         PIE
      +                          3bits.TXIE = 0;
  6739  03F5  014E               	movlb	14	; select bank14
  6740  03F6  1219               	bcf	25,4	;volatile
  6741  03F7                     i1l263:	
  6742  03F7  0008               	return
  6743  03F8                     __end_of_EUSART_Transmit_ISR:	
  6744                           
  6745                           	psect	text21
  6746  049A                     __ptext21:	
  6747 ;; *************** function _EUSART_DefaultOverrunErrorHandler *****************
  6748 ;; Defined at:
  6749 ;;		line 252 in file "mcc_generated_files/eusart.c"
  6750 ;; Parameters:    Size  Location     Type
  6751 ;;		None
  6752 ;; Auto vars:     Size  Location     Type
  6753 ;;		None
  6754 ;; Return value:  Size  Location     Type
  6755 ;;                  1    wreg      void 
  6756 ;; Registers used:
  6757 ;;		None
  6758 ;; Tracked objects:
  6759 ;;		On entry : 0/0
  6760 ;;		On exit  : 0/0
  6761 ;;		Unchanged: 0/0
  6762 ;; Data sizes:     COMMON   BANK0   BANK1   BANK2   BANK3   BANK4   BANK5   BANK6   BANK7   BANK8   BANK9  BANK10  BANK1
      +1  BANK12  BANK13  BANK14  BANK15  BANK16  BANK17  BANK18  BANK19  BANK20  BANK21  BANK22  BANK23  BANK24  BANK25  BANK2
      +6  BANK27  BANK28  BANK29  BANK30  BANK31  BANK32  BANK33  BANK34  BANK35  BANK36  BANK37  BANK38  BANK39  BANK40  BANK4
      +1  BANK42  BANK43  BANK44  BANK45  BANK46  BANK47  BANK48  BANK49  BANK50
  6763 ;;      Params:         0       0       0       0       0       0       0       0       0       0       0       0       
      +0       0       0       0       0       0       0       0       0       0       0       0       0       0       0       
      +0       0       0       0       0       0       0       0       0       0       0       0       0       0       0       
      +0       0       0       0       0       0       0       0       0       0
  6764 ;;      Locals:         0       0       0       0       0       0       0       0       0       0       0       0       
      +0       0       0       0       0       0       0       0       0       0       0       0       0       0       0       
      +0       0       0       0       0       0       0       0       0       0       0       0       0       0       0       
      +0       0       0       0       0       0       0       0       0       0
  6765 ;;      Temps:          0       0       0       0       0       0       0       0       0       0       0       0       
      +0       0       0       0       0       0       0       0       0       0       0       0       0       0       0       
      +0       0       0       0       0       0       0       0       0       0       0       0       0       0       0       
      +0       0       0       0       0       0       0       0       0       0
  6766 ;;      Totals:         0       0       0       0       0       0       0       0       0       0       0       0       
      +0       0       0       0       0       0       0       0       0       0       0       0       0       0       0       
      +0       0       0       0       0       0       0       0       0       0       0       0       0       0       0       
      +0       0       0       0       0       0       0       0       0       0
  6767 ;;Total ram usage:        0 bytes
  6768 ;; Hardware stack levels used:    1
  6769 ;; This function calls:
  6770 ;;		Nothing
  6771 ;; This function is called by:
  6772 ;;		_EUSART_Initialize
  6773 ;;		_EUSART_Receive_ISR
  6774 ;;		_UserRxInterruptHandler
  6775 ;; This function uses a non-reentrant model
  6776 ;;
  6777                           
  6778                           
  6779                           ;psect for function _EUSART_DefaultOverrunErrorHandler
  6780  049A                     _EUSART_DefaultOverrunErrorHandler:	
  6781  049A                     i1l1674:	
  6782                           ;incstack = 0
  6783                           ; Regs used in _EUSART_DefaultOverrunErrorHandler: []
  6784                           
  6785                           
  6786                           ;mcc_generated_files/eusart.c: 255:     RC1STAbits.CREN = 0;
  6787  049A  0142               	movlb	2	; select bank2
  6788  049B  121D               	bcf	29,4	;volatile
  6789                           
  6790                           ;mcc_generated_files/eusart.c: 256:     RC1STAbits.CREN = 1;
  6791  049C  161D               	bsf	29,4	;volatile
  6792  049D                     i1l280:	
  6793  049D  0008               	return
  6794  049E                     __end_of_EUSART_DefaultOverrunErrorHandler:	
  6795                           
  6796                           	psect	text22
  6797  04A2                     __ptext22:	
  6798 ;; *************** function _EUSART_DefaultFramingErrorHandler *****************
  6799 ;; Defined at:
  6800 ;;		line 250 in file "mcc_generated_files/eusart.c"
  6801 ;; Parameters:    Size  Location     Type
  6802 ;;		None
  6803 ;; Auto vars:     Size  Location     Type
  6804 ;;		None
  6805 ;; Return value:  Size  Location     Type
  6806 ;;                  1    wreg      void 
  6807 ;; Registers used:
  6808 ;;		None
  6809 ;; Tracked objects:
  6810 ;;		On entry : 0/0
  6811 ;;		On exit  : 0/0
  6812 ;;		Unchanged: 0/0
  6813 ;; Data sizes:     COMMON   BANK0   BANK1   BANK2   BANK3   BANK4   BANK5   BANK6   BANK7   BANK8   BANK9  BANK10  BANK1
      +1  BANK12  BANK13  BANK14  BANK15  BANK16  BANK17  BANK18  BANK19  BANK20  BANK21  BANK22  BANK23  BANK24  BANK25  BANK2
      +6  BANK27  BANK28  BANK29  BANK30  BANK31  BANK32  BANK33  BANK34  BANK35  BANK36  BANK37  BANK38  BANK39  BANK40  BANK4
      +1  BANK42  BANK43  BANK44  BANK45  BANK46  BANK47  BANK48  BANK49  BANK50
  6814 ;;      Params:         0       0       0       0       0       0       0       0       0       0       0       0       
      +0       0       0       0       0       0       0       0       0       0       0       0       0       0       0       
      +0       0       0       0       0       0       0       0       0       0       0       0       0       0       0       
      +0       0       0       0       0       0       0       0       0       0
  6815 ;;      Locals:         0       0       0       0       0       0       0       0       0       0       0       0       
      +0       0       0       0       0       0       0       0       0       0       0       0       0       0       0       
      +0       0       0       0       0       0       0       0       0       0       0       0       0       0       0       
      +0       0       0       0       0       0       0       0       0       0
  6816 ;;      Temps:          0       0       0       0       0       0       0       0       0       0       0       0       
      +0       0       0       0       0       0       0       0       0       0       0       0       0       0       0       
      +0       0       0       0       0       0       0       0       0       0       0       0       0       0       0       
      +0       0       0       0       0       0       0       0       0       0
  6817 ;;      Totals:         0       0       0       0       0       0       0       0       0       0       0       0       
      +0       0       0       0       0       0       0       0       0       0       0       0       0       0       0       
      +0       0       0       0       0       0       0       0       0       0       0       0       0       0       0       
      +0       0       0       0       0       0       0       0       0       0
  6818 ;;Total ram usage:        0 bytes
  6819 ;; Hardware stack levels used:    1
  6820 ;; This function calls:
  6821 ;;		Nothing
  6822 ;; This function is called by:
  6823 ;;		_EUSART_Initialize
  6824 ;;		_EUSART_Receive_ISR
  6825 ;;		_UserRxInterruptHandler
  6826 ;; This function uses a non-reentrant model
  6827 ;;
  6828                           
  6829                           
  6830                           ;psect for function _EUSART_DefaultFramingErrorHandler
  6831  04A2                     _EUSART_DefaultFramingErrorHandler:	
  6832  04A2                     i1l277:	
  6833                           ;incstack = 0
  6834                           ; Regs used in _EUSART_DefaultFramingErrorHandler: []
  6835                           
  6836  04A2  0008               	return
  6837  04A3                     __end_of_EUSART_DefaultFramingErrorHandler:	
  6838                           
  6839                           	psect	text23
  6840  049E                     __ptext23:	
  6841 ;; *************** function _EUSART_DefaultErrorHandler *****************
  6842 ;; Defined at:
  6843 ;;		line 260 in file "mcc_generated_files/eusart.c"
  6844 ;; Parameters:    Size  Location     Type
  6845 ;;		None
  6846 ;; Auto vars:     Size  Location     Type
  6847 ;;		None
  6848 ;; Return value:  Size  Location     Type
  6849 ;;                  1    wreg      void 
  6850 ;; Registers used:
  6851 ;;		wreg, fsr1l, fsr1h, status,2, status,0, pclath, cstack
  6852 ;; Tracked objects:
  6853 ;;		On entry : 0/0
  6854 ;;		On exit  : 0/0
  6855 ;;		Unchanged: 0/0
  6856 ;; Data sizes:     COMMON   BANK0   BANK1   BANK2   BANK3   BANK4   BANK5   BANK6   BANK7   BANK8   BANK9  BANK10  BANK1
      +1  BANK12  BANK13  BANK14  BANK15  BANK16  BANK17  BANK18  BANK19  BANK20  BANK21  BANK22  BANK23  BANK24  BANK25  BANK2
      +6  BANK27  BANK28  BANK29  BANK30  BANK31  BANK32  BANK33  BANK34  BANK35  BANK36  BANK37  BANK38  BANK39  BANK40  BANK4
      +1  BANK42  BANK43  BANK44  BANK45  BANK46  BANK47  BANK48  BANK49  BANK50
  6857 ;;      Params:         0       0       0       0       0       0       0       0       0       0       0       0       
      +0       0       0       0       0       0       0       0       0       0       0       0       0       0       0       
      +0       0       0       0       0       0       0       0       0       0       0       0       0       0       0       
      +0       0       0       0       0       0       0       0       0       0
  6858 ;;      Locals:         0       0       0       0       0       0       0       0       0       0       0       0       
      +0       0       0       0       0       0       0       0       0       0       0       0       0       0       0       
      +0       0       0       0       0       0       0       0       0       0       0       0       0       0       0       
      +0       0       0       0       0       0       0       0       0       0
  6859 ;;      Temps:          0       0       0       0       0       0       0       0       0       0       0       0       
      +0       0       0       0       0       0       0       0       0       0       0       0       0       0       0       
      +0       0       0       0       0       0       0       0       0       0       0       0       0       0       0       
      +0       0       0       0       0       0       0       0       0       0
  6860 ;;      Totals:         0       0       0       0       0       0       0       0       0       0       0       0       
      +0       0       0       0       0       0       0       0       0       0       0       0       0       0       0       
      +0       0       0       0       0       0       0       0       0       0       0       0       0       0       0       
      +0       0       0       0       0       0       0       0       0       0
  6861 ;;Total ram usage:        0 bytes
  6862 ;; Hardware stack levels used:    1
  6863 ;; Hardware stack levels required when called:    1
  6864 ;; This function calls:
  6865 ;;		_EUSART_RxDataHandler
  6866 ;; This function is called by:
  6867 ;;		_EUSART_Initialize
  6868 ;;		_EUSART_Receive_ISR
  6869 ;;		_UserRxInterruptHandler
  6870 ;; This function uses a non-reentrant model
  6871 ;;
  6872                           
  6873                           
  6874                           ;psect for function _EUSART_DefaultErrorHandler
  6875  049E                     _EUSART_DefaultErrorHandler:	
  6876  049E                     i1l1676:	
  6877                           ;incstack = 0
  6878                           ; Regs used in _EUSART_DefaultErrorHandler: [wreg+fsr1l+fsr1h+status,2+status,0+pclath+c
      +                          stack]
  6879                           
  6880                           
  6881                           ;mcc_generated_files/eusart.c: 261:     EUSART_RxDataHandler();
  6882  049E  3183  23F8  3184   	fcall	_EUSART_RxDataHandler
  6883  04A1                     i1l283:	
  6884  04A1  0008               	return
  6885  04A2                     __end_of_EUSART_DefaultErrorHandler:	
  6886                           
  6887                           	psect	text24
  6888  03F8                     __ptext24:	
  6889 ;; *************** function _EUSART_RxDataHandler *****************
  6890 ;; Defined at:
  6891 ;;		line 240 in file "mcc_generated_files/eusart.c"
  6892 ;; Parameters:    Size  Location     Type
  6893 ;;		None
  6894 ;; Auto vars:     Size  Location     Type
  6895 ;;		None
  6896 ;; Return value:  Size  Location     Type
  6897 ;;                  1    wreg      void 
  6898 ;; Registers used:
  6899 ;;		wreg, fsr1l, fsr1h, status,2, status,0
  6900 ;; Tracked objects:
  6901 ;;		On entry : 0/0
  6902 ;;		On exit  : 0/0
  6903 ;;		Unchanged: 0/0
  6904 ;; Data sizes:     COMMON   BANK0   BANK1   BANK2   BANK3   BANK4   BANK5   BANK6   BANK7   BANK8   BANK9  BANK10  BANK1
      +1  BANK12  BANK13  BANK14  BANK15  BANK16  BANK17  BANK18  BANK19  BANK20  BANK21  BANK22  BANK23  BANK24  BANK25  BANK2
      +6  BANK27  BANK28  BANK29  BANK30  BANK31  BANK32  BANK33  BANK34  BANK35  BANK36  BANK37  BANK38  BANK39  BANK40  BANK4
      +1  BANK42  BANK43  BANK44  BANK45  BANK46  BANK47  BANK48  BANK49  BANK50
  6905 ;;      Params:         0       0       0       0       0       0       0       0       0       0       0       0       
      +0       0       0       0       0       0       0       0       0       0       0       0       0       0       0       
      +0       0       0       0       0       0       0       0       0       0       0       0       0       0       0       
      +0       0       0       0       0       0       0       0       0       0
  6906 ;;      Locals:         0       0       0       0       0       0       0       0       0       0       0       0       
      +0       0       0       0       0       0       0       0       0       0       0       0       0       0       0       
      +0       0       0       0       0       0       0       0       0       0       0       0       0       0       0       
      +0       0       0       0       0       0       0       0       0       0
  6907 ;;      Temps:          1       0       0       0       0       0       0       0       0       0       0       0       
      +0       0       0       0       0       0       0       0       0       0       0       0       0       0       0       
      +0       0       0       0       0       0       0       0       0       0       0       0       0       0       0       
      +0       0       0       0       0       0       0       0       0       0
  6908 ;;      Totals:         1       0       0       0       0       0       0       0       0       0       0       0       
      +0       0       0       0       0       0       0       0       0       0       0       0       0       0       0       
      +0       0       0       0       0       0       0       0       0       0       0       0       0       0       0       
      +0       0       0       0       0       0       0       0       0       0
  6909 ;;Total ram usage:        1 bytes
  6910 ;; Hardware stack levels used:    1
  6911 ;; This function calls:
  6912 ;;		Nothing
  6913 ;; This function is called by:
  6914 ;;		_EUSART_Receive_ISR
  6915 ;;		_EUSART_DefaultErrorHandler
  6916 ;;		_UserRxInterruptHandler
  6917 ;; This function uses a non-reentrant model
  6918 ;;
  6919                           
  6920                           
  6921                           ;psect for function _EUSART_RxDataHandler
  6922  03F8                     _EUSART_RxDataHandler:	
  6923  03F8                     i1l1598:	
  6924                           ;incstack = 0
  6925                           ; Regs used in _EUSART_RxDataHandler: [wreg+fsr1l+fsr1h+status,2+status,0]
  6926                           
  6927                           
  6928                           ;mcc_generated_files/eusart.c: 242:     eusartRxBuffer[eusartRxHead++] = RC1REG;
  6929  03F8  0142               	movlb	2	; select bank2
  6930  03F9  0819               	movf	25,w	;volatile
  6931  03FA  00F0               	movwf	??_EUSART_RxDataHandler
  6932  03FB  087A               	movf	_eusartRxHead,w
  6933  03FC  3EA8               	addlw	(low (_eusartRxBuffer| 0))& (0+255)
  6934  03FD  0086               	movwf	6
  6935  03FE  0187               	clrf	7
  6936  03FF  0870               	movf	??_EUSART_RxDataHandler,w
  6937  0400  0081               	movwf	1
  6938  0401                     i1l1600:	
  6939  0401  3001               	movlw	1
  6940  0402  00F0               	movwf	??_EUSART_RxDataHandler
  6941  0403  0870               	movf	??_EUSART_RxDataHandler,w
  6942  0404  07FA               	addwf	_eusartRxHead,f	;volatile
  6943  0405                     i1l1602:	
  6944                           
  6945                           ;mcc_generated_files/eusart.c: 243:     if(sizeof(eusartRxBuffer) <= eusartRxHead)
  6946  0405  3008               	movlw	8
  6947  0406  027A               	subwf	_eusartRxHead,w	;volatile
  6948  0407  1C03               	skipc
  6949  0408  2C0A               	goto	u38_21
  6950  0409  2C0B               	goto	u38_20
  6951  040A                     u38_21:	
  6952  040A  2C0C               	goto	i1l1606
  6953  040B                     u38_20:	
  6954  040B                     i1l1604:	
  6955                           
  6956                           ;mcc_generated_files/eusart.c: 244:     {;mcc_generated_files/eusart.c: 245:         eus
      +                          artRxHead = 0;
  6957  040B  01FA               	clrf	_eusartRxHead	;volatile
  6958  040C                     i1l1606:	
  6959                           
  6960                           ;mcc_generated_files/eusart.c: 247:     eusartRxCount++;
  6961  040C  3001               	movlw	1
  6962  040D  00F0               	movwf	??_EUSART_RxDataHandler
  6963  040E  0870               	movf	??_EUSART_RxDataHandler,w
  6964  040F  0141               	movlb	1	; select bank1
  6965  0410  07B2               	addwf	_eusartRxCount^(0+128),f	;volatile
  6966  0411                     i1l274:	
  6967  0411  0008               	return
  6968  0412                     __end_of_EUSART_RxDataHandler:	
  6969  007E                     btemp	set	126	;btemp
  6970  007E                     int$flags	set	126
  6971  007E                     wtemp0	set	126


Data Sizes:
    Strings     0
    Constant    0
    Data        16
    BSS         159
    Persistent  43
    Stack       0

Auto Spaces:
    Space          Size  Autos    Used
    COMMON           14      9      12
    BANK0            80     80      80
    BANK1            80     18      65
    BANK2            80      0      64
    BANK3            80      0      72
    BANK4            80      0       0
    BANK5            80      0       0
    BANK6            80      0       0
    BANK7            80      0       0
    BANK8            80      0       0
    BANK9            80      0       0
    BANK10           80      0       0
    BANK11           80      0       0
    BANK12           80      0       0
    BANK13           80      0       0
    BANK14           80      0       0
    BANK15           80      0       0
    BANK16           80      0       0
    BANK17           80      0       0
    BANK18           80      0       0
    BANK19           80      0       0
    BANK20           80      0       0
    BANK21           80      0       0
    BANK22           80      0       0
    BANK23           80      0       0
    BANK24           80      0       0
    BANK25           80      0       0
    BANK26           80      0       0
    BANK27           80      0       0
    BANK28           80      0       0
    BANK29           80      0       0
    BANK30           80      0       0
    BANK31           80      0       0
    BANK32           80      0       0
    BANK33           80      0       0
    BANK34           80      0       0
    BANK35           80      0       0
    BANK36           80      0       0
    BANK37           80      0       0
    BANK38           80      0       0
    BANK39           80      0       0
    BANK40           80      0       0
    BANK41           80      0       0
    BANK42           80      0       0
    BANK43           80      0       0
    BANK44           80      0       0
    BANK45           80      0       0
    BANK46           80      0       0
    BANK47           80      0       0
    BANK48           80      0       0
    BANK49           80      0       0
    BANK50           80      0       0

Pointer List with Targets:

    max_with_threshold@scan_max	PTR unsigned int  size(1) Largest target is 36
		 -> main@scan_max(BANK0[36]), 

    EUSART_SetRxInterruptHandler@interruptHandler	PTR FTN()void  size(2) Largest target is 1
		 -> UserRxInterruptHandler(), EUSART_Receive_ISR(), 

    EUSART_RxDefaultInterruptHandler	PTR FTN()void  size(2) Largest target is 1
		 -> Absolute function(), UserRxInterruptHandler(), EUSART_Receive_ISR(), 

    EUSART_SetTxInterruptHandler@interruptHandler	PTR FTN()void  size(2) Largest target is 1
		 -> EUSART_Transmit_ISR(), 

    EUSART_TxDefaultInterruptHandler	PTR FTN()void  size(2) Largest target is 1
		 -> Absolute function(), EUSART_Transmit_ISR(), 

    EUSART_SetErrorHandler@interruptHandler	PTR FTN()void  size(2) Largest target is 1
		 -> EUSART_DefaultErrorHandler(), 

    EUSART_SetOverrunErrorHandler@interruptHandler	PTR FTN()void  size(2) Largest target is 1
		 -> EUSART_DefaultOverrunErrorHandler(), 

    EUSART_SetFramingErrorHandler@interruptHandler	PTR FTN()void  size(2) Largest target is 1
		 -> EUSART_DefaultFramingErrorHandler(), 

    EUSART_ErrorHandler	PTR FTN()void  size(2) Largest target is 1
		 -> Absolute function(), EUSART_DefaultErrorHandler(), 

    EUSART_OverrunErrorHandler	PTR FTN()void  size(2) Largest target is 1
		 -> Absolute function(), EUSART_DefaultOverrunErrorHandler(), 

    EUSART_FramingErrorHandler	PTR FTN()void  size(2) Largest target is 1
		 -> Absolute function(), EUSART_DefaultFramingErrorHandler(), 


Critical Paths under _main in COMMON

    _main->_max_with_threshold
    _max_with_threshold->_ADCC_GetSingleConversion
    _SYSTEM_Initialize->_EUSART_Initialize
    _EUSART_Initialize->_EUSART_SetErrorHandler
    _EUSART_Initialize->_EUSART_SetFramingErrorHandler
    _EUSART_Initialize->_EUSART_SetOverrunErrorHandler
    _EUSART_Initialize->_EUSART_SetRxInterruptHandler
    _EUSART_Initialize->_EUSART_SetTxInterruptHandler

Critical Paths under _INTERRUPT_InterruptManager in COMMON

    _UserRxInterruptHandler->_EUSART_Read
    _EUSART_Receive_ISR->_EUSART_RxDataHandler
    _EUSART_DefaultErrorHandler->_EUSART_RxDataHandler

Critical Paths under _main in BANK0

    _main->_max_with_threshold

Critical Paths under _INTERRUPT_InterruptManager in BANK0

    None.

Critical Paths under _main in BANK1

    None.

Critical Paths under _INTERRUPT_InterruptManager in BANK1

    None.

Critical Paths under _main in BANK2

    None.

Critical Paths under _INTERRUPT_InterruptManager in BANK2

    None.

Critical Paths under _main in BANK3

    None.

Critical Paths under _INTERRUPT_InterruptManager in BANK3

    None.

Critical Paths under _main in BANK4

    None.

Critical Paths under _INTERRUPT_InterruptManager in BANK4

    None.

Critical Paths under _main in BANK5

    None.

Critical Paths under _INTERRUPT_InterruptManager in BANK5

    None.

Critical Paths under _main in BANK6

    None.

Critical Paths under _INTERRUPT_InterruptManager in BANK6

    None.

Critical Paths under _main in BANK7

    None.

Critical Paths under _INTERRUPT_InterruptManager in BANK7

    None.

Critical Paths under _main in BANK8

    None.

Critical Paths under _INTERRUPT_InterruptManager in BANK8

    None.

Critical Paths under _main in BANK9

    None.

Critical Paths under _INTERRUPT_InterruptManager in BANK9

    None.

Critical Paths under _main in BANK10

    None.

Critical Paths under _INTERRUPT_InterruptManager in BANK10

    None.

Critical Paths under _main in BANK11

    None.

Critical Paths under _INTERRUPT_InterruptManager in BANK11

    None.

Critical Paths under _main in BANK12

    None.

Critical Paths under _INTERRUPT_InterruptManager in BANK12

    None.

Critical Paths under _main in BANK13

    None.

Critical Paths under _INTERRUPT_InterruptManager in BANK13

    None.

Critical Paths under _main in BANK14

    None.

Critical Paths under _INTERRUPT_InterruptManager in BANK14

    None.

Critical Paths under _main in BANK15

    None.

Critical Paths under _INTERRUPT_InterruptManager in BANK15

    None.

Critical Paths under _main in BANK16

    None.

Critical Paths under _INTERRUPT_InterruptManager in BANK16

    None.

Critical Paths under _main in BANK17

    None.

Critical Paths under _INTERRUPT_InterruptManager in BANK17

    None.

Critical Paths under _main in BANK18

    None.

Critical Paths under _INTERRUPT_InterruptManager in BANK18

    None.

Critical Paths under _main in BANK19

    None.

Critical Paths under _INTERRUPT_InterruptManager in BANK19

    None.

Critical Paths under _main in BANK20

    None.

Critical Paths under _INTERRUPT_InterruptManager in BANK20

    None.

Critical Paths under _main in BANK21

    None.

Critical Paths under _INTERRUPT_InterruptManager in BANK21

    None.

Critical Paths under _main in BANK22

    None.

Critical Paths under _INTERRUPT_InterruptManager in BANK22

    None.

Critical Paths under _main in BANK23

    None.

Critical Paths under _INTERRUPT_InterruptManager in BANK23

    None.

Critical Paths under _main in BANK24

    None.

Critical Paths under _INTERRUPT_InterruptManager in BANK24

    None.

Critical Paths under _main in BANK25

    None.

Critical Paths under _INTERRUPT_InterruptManager in BANK25

    None.

Critical Paths under _main in BANK26

    None.

Critical Paths under _INTERRUPT_InterruptManager in BANK26

    None.

Critical Paths under _main in BANK27

    None.

Critical Paths under _INTERRUPT_InterruptManager in BANK27

    None.

Critical Paths under _main in BANK28

    None.

Critical Paths under _INTERRUPT_InterruptManager in BANK28

    None.

Critical Paths under _main in BANK29

    None.

Critical Paths under _INTERRUPT_InterruptManager in BANK29

    None.

Critical Paths under _main in BANK30

    None.

Critical Paths under _INTERRUPT_InterruptManager in BANK30

    None.

Critical Paths under _main in BANK31

    None.

Critical Paths under _INTERRUPT_InterruptManager in BANK31

    None.

Critical Paths under _main in BANK32

    None.

Critical Paths under _INTERRUPT_InterruptManager in BANK32

    None.

Critical Paths under _main in BANK33

    None.

Critical Paths under _INTERRUPT_InterruptManager in BANK33

    None.

Critical Paths under _main in BANK34

    None.

Critical Paths under _INTERRUPT_InterruptManager in BANK34

    None.

Critical Paths under _main in BANK35

    None.

Critical Paths under _INTERRUPT_InterruptManager in BANK35

    None.

Critical Paths under _main in BANK36

    None.

Critical Paths under _INTERRUPT_InterruptManager in BANK36

    None.

Critical Paths under _main in BANK37

    None.

Critical Paths under _INTERRUPT_InterruptManager in BANK37

    None.

Critical Paths under _main in BANK38

    None.

Critical Paths under _INTERRUPT_InterruptManager in BANK38

    None.

Critical Paths under _main in BANK39

    None.

Critical Paths under _INTERRUPT_InterruptManager in BANK39

    None.

Critical Paths under _main in BANK40

    None.

Critical Paths under _INTERRUPT_InterruptManager in BANK40

    None.

Critical Paths under _main in BANK41

    None.

Critical Paths under _INTERRUPT_InterruptManager in BANK41

    None.

Critical Paths under _main in BANK42

    None.

Critical Paths under _INTERRUPT_InterruptManager in BANK42

    None.

Critical Paths under _main in BANK43

    None.

Critical Paths under _INTERRUPT_InterruptManager in BANK43

    None.

Critical Paths under _main in BANK44

    None.

Critical Paths under _INTERRUPT_InterruptManager in BANK44

    None.

Critical Paths under _main in BANK45

    None.

Critical Paths under _INTERRUPT_InterruptManager in BANK45

    None.

Critical Paths under _main in BANK46

    None.

Critical Paths under _INTERRUPT_InterruptManager in BANK46

    None.

Critical Paths under _main in BANK47

    None.

Critical Paths under _INTERRUPT_InterruptManager in BANK47

    None.

Critical Paths under _main in BANK48

    None.

Critical Paths under _INTERRUPT_InterruptManager in BANK48

    None.

Critical Paths under _main in BANK49

    None.

Critical Paths under _INTERRUPT_InterruptManager in BANK49

    None.

Critical Paths under _main in BANK50

    None.

Critical Paths under _INTERRUPT_InterruptManager in BANK50

    None.

Call Graph Tables:

 ---------------------------------------------------------------------------------
 (Depth) Function   	        Calls       Base Space   Used Autos Params    Refs
 ---------------------------------------------------------------------------------
 (0) _main                                                96    96      0    5563
                                              2 BANK0     78    78      0
                                              0 BANK1     18    18      0
           _ADCC_GetSingleConversion
       _EUSART_SetRxInterruptHandler
                       _EUSART_Write
                  _EUSART_is_tx_done
                  _SYSTEM_Initialize
                 _max_with_threshold
 ---------------------------------------------------------------------------------
 (1) _max_with_threshold                                   5     3      2    2549
                                              6 COMMON     3     1      2
                                              0 BANK0      2     2      0
           _ADCC_GetSingleConversion (ARG)
 ---------------------------------------------------------------------------------
 (1) _SYSTEM_Initialize                                    0     0      0     695
                    _ADCC_Initialize
                  _EUSART_Initialize
              _OSCILLATOR_Initialize
             _PIN_MANAGER_Initialize
                     _PMD_Initialize
 ---------------------------------------------------------------------------------
 (2) _PMD_Initialize                                       0     0      0       0
 ---------------------------------------------------------------------------------
 (2) _PIN_MANAGER_Initialize                               0     0      0       0
 ---------------------------------------------------------------------------------
 (2) _OSCILLATOR_Initialize                                0     0      0       0
 ---------------------------------------------------------------------------------
 (2) _EUSART_Initialize                                    1     1      0     695
                                              4 COMMON     1     1      0
             _EUSART_SetErrorHandler
      _EUSART_SetFramingErrorHandler
      _EUSART_SetOverrunErrorHandler
       _EUSART_SetRxInterruptHandler
       _EUSART_SetTxInterruptHandler
 ---------------------------------------------------------------------------------
 (3) _EUSART_SetTxInterruptHandler                         2     0      2     121
                                              2 COMMON     2     0      2
 ---------------------------------------------------------------------------------
 (3) _EUSART_SetRxInterruptHandler                         2     0      2     211
                                              2 COMMON     2     0      2
 ---------------------------------------------------------------------------------
 (3) _EUSART_SetOverrunErrorHandler                        2     0      2     121
                                              2 COMMON     2     0      2
 ---------------------------------------------------------------------------------
 (3) _EUSART_SetFramingErrorHandler                        2     0      2     121
                                              2 COMMON     2     0      2
 ---------------------------------------------------------------------------------
 (3) _EUSART_SetErrorHandler                               2     0      2     121
                                              2 COMMON     2     0      2
 ---------------------------------------------------------------------------------
 (2) _ADCC_Initialize                                      0     0      0       0
 ---------------------------------------------------------------------------------
 (1) _EUSART_is_tx_done                                    0     0      0       0
 ---------------------------------------------------------------------------------
 (1) _EUSART_Write                                         2     2      0      62
                                              2 COMMON     2     2      0
 ---------------------------------------------------------------------------------
 (1) _ADCC_GetSingleConversion                             4     1      3      31
                                              2 COMMON     4     1      3
 ---------------------------------------------------------------------------------
 Estimated maximum stack depth 3
 ---------------------------------------------------------------------------------
 (Depth) Function   	        Calls       Base Space   Used Autos Params    Refs
 ---------------------------------------------------------------------------------
 (4) _INTERRUPT_InterruptManager                           0     0      0      24
                   Absolute function *
                 _EUSART_Receive_ISR *
                _EUSART_Transmit_ISR *
             _UserRxInterruptHandler *
 ---------------------------------------------------------------------------------
 (5) _UserRxInterruptHandler                               0     0      0      24
                   Absolute function *
         _EUSART_DefaultErrorHandler *
  _EUSART_DefaultFramingErrorHandler *
  _EUSART_DefaultOverrunErrorHandler *
                        _EUSART_Read
               _EUSART_RxDataHandler
 ---------------------------------------------------------------------------------
 (6) _EUSART_Read                                          2     2      0      24
                                              0 COMMON     2     2      0
 ---------------------------------------------------------------------------------
 (5) _EUSART_Transmit_ISR                                  1     1      0       0
                                              0 COMMON     1     1      0
 ---------------------------------------------------------------------------------
 (5) _EUSART_Receive_ISR                                   0     0      0       0
                   Absolute function *
         _EUSART_DefaultErrorHandler *
  _EUSART_DefaultFramingErrorHandler *
  _EUSART_DefaultOverrunErrorHandler *
               _EUSART_RxDataHandler
 ---------------------------------------------------------------------------------
 (6) _EUSART_DefaultOverrunErrorHandler                    0     0      0       0
 ---------------------------------------------------------------------------------
 (6) _EUSART_DefaultFramingErrorHandler                    0     0      0       0
 ---------------------------------------------------------------------------------
 (6) _EUSART_DefaultErrorHandler                           0     0      0       0
               _EUSART_RxDataHandler
 ---------------------------------------------------------------------------------
 (6) _EUSART_RxDataHandler                                 1     1      0       0
                                              0 COMMON     1     1      0
 ---------------------------------------------------------------------------------
 (6) Absolute function(Fake)                               0     0      0       0
 ---------------------------------------------------------------------------------
 Estimated maximum stack depth 6
 ---------------------------------------------------------------------------------

 Call Graph Graphs:

 _main (ROOT)
   _ADCC_GetSingleConversion
   _EUSART_SetRxInterruptHandler
   _EUSART_Write
   _EUSART_is_tx_done
   _SYSTEM_Initialize
     _ADCC_Initialize
     _EUSART_Initialize
       _EUSART_SetErrorHandler
       _EUSART_SetFramingErrorHandler
       _EUSART_SetOverrunErrorHandler
       _EUSART_SetRxInterruptHandler
       _EUSART_SetTxInterruptHandler
     _OSCILLATOR_Initialize
     _PIN_MANAGER_Initialize
     _PMD_Initialize
   _max_with_threshold
     _ADCC_GetSingleConversion (ARG)

 _INTERRUPT_InterruptManager (ROOT)
   Absolute function(Fake) *
   _EUSART_Receive_ISR *
     Absolute function(Fake) *
     _EUSART_DefaultErrorHandler *
       _EUSART_RxDataHandler
     _EUSART_DefaultFramingErrorHandler *
     _EUSART_DefaultOverrunErrorHandler *
     _EUSART_RxDataHandler *
   _EUSART_Transmit_ISR *
   _UserRxInterruptHandler *
     Absolute function(Fake) *
     _EUSART_DefaultErrorHandler *
       _EUSART_RxDataHandler
     _EUSART_DefaultFramingErrorHandler *
     _EUSART_DefaultOverrunErrorHandler *
     _EUSART_Read *
     _EUSART_RxDataHandler *

 Address spaces:
Name               Size   Autos  Total    Cost      Usage
BIGRAM             FF0      0       0       0        0.0%
EEDATA             100      0       0       0        0.0%
NULL                 0      0       0       0        0.0%
CODE                 0      0       0       0        0.0%
BITCOMMON            E      0       0       1        0.0%
BITSFR0              0      0       0       1        0.0%
SFR0                 0      0       0       1        0.0%
COMMON               E      9       C       2       85.7%
BITSFR1              0      0       0       2        0.0%
SFR1                 0      0       0       2        0.0%
BITSFR2              0      0       0       3        0.0%
SFR2                 0      0       0       3        0.0%
STACK                0      0       0       3        0.0%
BITBANK0            50      0       0       4        0.0%
BITSFR3              0      0       0       4        0.0%
SFR3                 0      0       0       4        0.0%
BANK0               50     50      50       5      100.0%
BITSFR4              0      0       0       5        0.0%
SFR4                 0      0       0       5        0.0%
BITBANK1            50      0       0       6        0.0%
BITSFR5              0      0       0       6        0.0%
SFR5                 0      0       0       6        0.0%
BANK1               50     12      41       7       81.2%
BITSFR6              0      0       0       7        0.0%
SFR6                 0      0       0       7        0.0%
BITBANK2            50      0       0       8        0.0%
BITSFR7              0      0       0       8        0.0%
SFR7                 0      0       0       8        0.0%
BANK2               50      0      40       9       80.0%
BITSFR8              0      0       0       9        0.0%
SFR8                 0      0       0       9        0.0%
BITBANK3            50      0       0      10        0.0%
BITSFR9              0      0       0      10        0.0%
SFR9                 0      0       0      10        0.0%
BANK3               50      0      48      11       90.0%
BITSFR10             0      0       0      11        0.0%
SFR10                0      0       0      11        0.0%
BITBANK4            50      0       0      12        0.0%
BITSFR11             0      0       0      12        0.0%
SFR11                0      0       0      12        0.0%
BANK4               50      0       0      13        0.0%
BITSFR12             0      0       0      13        0.0%
SFR12                0      0       0      13        0.0%
BITBANK5            50      0       0      14        0.0%
BITSFR13             0      0       0      14        0.0%
SFR13                0      0       0      14        0.0%
BANK5               50      0       0      15        0.0%
BITSFR14             0      0       0      15        0.0%
SFR14                0      0       0      15        0.0%
BITBANK6            50      0       0      16        0.0%
BITSFR15             0      0       0      16        0.0%
SFR15                0      0       0      16        0.0%
BANK6               50      0       0      17        0.0%
BITSFR16             0      0       0      17        0.0%
SFR16                0      0       0      17        0.0%
BITBANK7            50      0       0      18        0.0%
BITSFR17             0      0       0      18        0.0%
SFR17                0      0       0      18        0.0%
BANK7               50      0       0      19        0.0%
BITSFR18             0      0       0      19        0.0%
SFR18                0      0       0      19        0.0%
BITBANK8            50      0       0      20        0.0%
BITSFR19             0      0       0      20        0.0%
SFR19                0      0       0      20        0.0%
BANK8               50      0       0      21        0.0%
BITSFR20             0      0       0      21        0.0%
SFR20                0      0       0      21        0.0%
BITBANK9            50      0       0      22        0.0%
BITSFR21             0      0       0      22        0.0%
SFR21                0      0       0      22        0.0%
BANK9               50      0       0      23        0.0%
BITSFR22             0      0       0      23        0.0%
SFR22                0      0       0      23        0.0%
BITBANK10           50      0       0      24        0.0%
BITSFR23             0      0       0      24        0.0%
SFR23                0      0       0      24        0.0%
BANK10              50      0       0      25        0.0%
BITSFR24             0      0       0      25        0.0%
SFR24                0      0       0      25        0.0%
BITBANK11           50      0       0      26        0.0%
BITSFR25             0      0       0      26        0.0%
SFR25                0      0       0      26        0.0%
BANK11              50      0       0      27        0.0%
BITSFR26             0      0       0      27        0.0%
SFR26                0      0       0      27        0.0%
BITSFR27             0      0       0      28        0.0%
SFR27                0      0       0      28        0.0%
ABS                  0      0     125      28        0.0%
BITBANK12           50      0       0      29        0.0%
BITSFR28             0      0       0      29        0.0%
SFR28                0      0       0      29        0.0%
BANK12              50      0       0      30        0.0%
BITSFR29             0      0       0      30        0.0%
SFR29                0      0       0      30        0.0%
BITBANK13           50      0       0      31        0.0%
BITSFR30             0      0       0      31        0.0%
SFR30                0      0       0      31        0.0%
BANK13              50      0       0      32        0.0%
BITSFR31             0      0       0      32        0.0%
SFR31                0      0       0      32        0.0%
BITBANK14           50      0       0      33        0.0%
BITSFR32             0      0       0      33        0.0%
SFR32                0      0       0      33        0.0%
BANK14              50      0       0      34        0.0%
BITSFR33             0      0       0      34        0.0%
SFR33                0      0       0      34        0.0%
BITBANK15           50      0       0      35        0.0%
BITSFR34             0      0       0      35        0.0%
SFR34                0      0       0      35        0.0%
BANK15              50      0       0      36        0.0%
BITSFR35             0      0       0      36        0.0%
SFR35                0      0       0      36        0.0%
BITBANK16           50      0       0      37        0.0%
BITSFR36             0      0       0      37        0.0%
SFR36                0      0       0      37        0.0%
BANK16              50      0       0      38        0.0%
BITSFR37             0      0       0      38        0.0%
SFR37                0      0       0      38        0.0%
BITBANK17           50      0       0      39        0.0%
BITSFR38             0      0       0      39        0.0%
SFR38                0      0       0      39        0.0%
BANK17              50      0       0      40        0.0%
BITSFR39             0      0       0      40        0.0%
SFR39                0      0       0      40        0.0%
BITBANK18           50      0       0      41        0.0%
BITSFR40             0      0       0      41        0.0%
SFR40                0      0       0      41        0.0%
BANK18              50      0       0      42        0.0%
BITSFR41             0      0       0      42        0.0%
SFR41                0      0       0      42        0.0%
BITBANK19           50      0       0      43        0.0%
BITSFR42             0      0       0      43        0.0%
SFR42                0      0       0      43        0.0%
BANK19              50      0       0      44        0.0%
BITSFR43             0      0       0      44        0.0%
SFR43                0      0       0      44        0.0%
BITBANK20           50      0       0      45        0.0%
BITSFR44             0      0       0      45        0.0%
SFR44                0      0       0      45        0.0%
BANK20              50      0       0      46        0.0%
BITSFR45             0      0       0      46        0.0%
SFR45                0      0       0      46        0.0%
BITBANK21           50      0       0      47        0.0%
BITSFR46             0      0       0      47        0.0%
SFR46                0      0       0      47        0.0%
BANK21              50      0       0      48        0.0%
BITSFR47             0      0       0      48        0.0%
SFR47                0      0       0      48        0.0%
BITBANK22           50      0       0      49        0.0%
BITSFR48             0      0       0      49        0.0%
SFR48                0      0       0      49        0.0%
BANK22              50      0       0      50        0.0%
BITSFR49             0      0       0      50        0.0%
SFR49                0      0       0      50        0.0%
BITBANK23           50      0       0      51        0.0%
BITSFR50             0      0       0      51        0.0%
SFR50                0      0       0      51        0.0%
BANK23              50      0       0      52        0.0%
BITSFR51             0      0       0      52        0.0%
SFR51                0      0       0      52        0.0%
BITBANK24           50      0       0      53        0.0%
BITSFR52             0      0       0      53        0.0%
SFR52                0      0       0      53        0.0%
BANK24              50      0       0      54        0.0%
BITSFR53             0      0       0      54        0.0%
SFR53                0      0       0      54        0.0%
BITBANK25           50      0       0      55        0.0%
BITSFR54             0      0       0      55        0.0%
SFR54                0      0       0      55        0.0%
BANK25              50      0       0      56        0.0%
BITSFR55             0      0       0      56        0.0%
SFR55                0      0       0      56        0.0%
BITBANK26           50      0       0      57        0.0%
BITSFR56             0      0       0      57        0.0%
SFR56                0      0       0      57        0.0%
BANK26              50      0       0      58        0.0%
BITSFR57             0      0       0      58        0.0%
SFR57                0      0       0      58        0.0%
BITSFR58             0      0       0      59        0.0%
SFR58                0      0       0      59        0.0%
DATA                 0      0     125      59        0.0%
BITBANK27           50      0       0      60        0.0%
BITSFR59             0      0       0      60        0.0%
SFR59                0      0       0      60        0.0%
BANK27              50      0       0      61        0.0%
BITSFR60             0      0       0      61        0.0%
SFR60                0      0       0      61        0.0%
BITBANK28           50      0       0      62        0.0%
BITSFR61             0      0       0      62        0.0%
SFR61                0      0       0      62        0.0%
BANK28              50      0       0      63        0.0%
BITSFR62             0      0       0      63        0.0%
SFR62                0      0       0      63        0.0%
BITBANK29           50      0       0      64        0.0%
BITSFR63             0      0       0      64        0.0%
SFR63                0      0       0      64        0.0%
BANK29              50      0       0      65        0.0%
BITBANK30           50      0       0      66        0.0%
BANK30              50      0       0      67        0.0%
BITBANK31           50      0       0      68        0.0%
BANK31              50      0       0      69        0.0%
BITBANK32           50      0       0      70        0.0%
BANK32              50      0       0      71        0.0%
BITBANK33           50      0       0      72        0.0%
BANK33              50      0       0      73        0.0%
BITBANK34           50      0       0      74        0.0%
BANK34              50      0       0      75        0.0%
BITBANK35           50      0       0      76        0.0%
BANK35              50      0       0      77        0.0%
BITBANK36           50      0       0      78        0.0%
BANK36              50      0       0      79        0.0%
BITBANK37           50      0       0      80        0.0%
BANK37              50      0       0      81        0.0%
BITBANK38           50      0       0      82        0.0%
BANK38              50      0       0      83        0.0%
BITBANK39           50      0       0      84        0.0%
BANK39              50      0       0      85        0.0%
BITBANK40           50      0       0      86        0.0%
BANK40              50      0       0      87        0.0%
BITBANK41           50      0       0      88        0.0%
BANK41              50      0       0      89        0.0%
BITBANK42           50      0       0      90        0.0%
BANK42              50      0       0      91        0.0%
BITBANK43           50      0       0      92        0.0%
BANK43              50      0       0      93        0.0%
BITBANK44           50      0       0      94        0.0%
BANK44              50      0       0      95        0.0%
BITBANK45           50      0       0      96        0.0%
BANK45              50      0       0      97        0.0%
BITBANK46           50      0       0      98        0.0%
BANK46              50      0       0      99        0.0%
BITBANK47           50      0       0     100        0.0%
BANK47              50      0       0     101        0.0%
BITBANK48           50      0       0     102        0.0%
BANK48              50      0       0     103        0.0%
BITBANK49           50      0       0     104        0.0%
BANK49              50      0       0     105        0.0%
BITBANK50           50      0       0     106        0.0%
BANK50              50      0       0     107        0.0%


Microchip Technology PIC Macro Assembler V2.10 build 88905656 
Symbol Table                                                                                   Sun Sep  6 23:47:41 2020

                ?_EUSART_SetRxInterruptHandler 0072                                    __CFG_CP$OFF 0000  
                                           l73 042A                                             l85 0452  
                                           l88 045A                                    __CFG_LVP$ON 0000  
                                          l253 0363                                            l229 02F5  
                                          l413 035B                                            l254 036C  
                                          l238 0499                                            l360 046B  
                                          l257 0386                                            l354 044A  
                                          l506 03D4                                            l292 0495  
                                          l357 0463                                            l286 048F  
                                          l295 047D                                            l480 01EF  
                                          l289 0489                                            l298 0483  
                                          l490 026E                                            l486 025E  
                                          l489 026C                                   __CFG_CPD$OFF 0000  
                                          u800 03CD                                            u801 03CC  
                                          u810 0060                                            u900 020F  
                                          u820 006A                                            u901 020E  
                                          u750 0456                                            u830 0077  
                                          u751 0455                                            u760 0363  
                                          u920 0256                                            u840 008C  
                                          u761 0362                                            u921 0255  
                                          u905 020B                                            u841 008B  
                                          u770 0368                                            u930 025E  
                                          u850 00A0                                            u771 0367  
                                          u931 025D                                            u915 0222  
                                          u851 009F                                            u780 0380  
                                          u940 026C                                            u860 00B4  
                                          u781 037F                                            u941 026B  
                                          u861 00B3                                            u790 03C4  
                                          u870 00C8                                            u791 03C3  
                                          u871 00C7                                            u880 00DC  
                                          u881 00DB                                            u890 01EC  
                                          u795 03C0                                            u891 01EB  
                       ??_EUSART_RxDataHandler 0070                 ?_EUSART_SetFramingErrorHandler 0072  
                      __size_of_PMD_Initialize 0008                                   __CFG_BORV$LO 0000  
                                          wreg 0009                     __end_of_max_with_threshold 03D5  
                                 ?_EUSART_Read 0070                                   __CFG_ZCD$OFF 0000  
                                         l2000 02C9                                           l2010 02D3  
                                         l2002 02CC                                           l2100 0384  
                                         l2020 02F1                                           l2012 02DA  
                                         l2004 02CE                                           l2022 02F2  
                                         l2014 02E1                                           l2006 02D0  
                                         l2030 0333                                           l2110 0447  
                                         l2102 043B                                           l2024 02F3  
                                         l2016 02EC                                           l2008 02D2  
                                         l2040 033E                                           l2032 0335  
                                         l2104 043E                                           l2112 03B2  
                                         l2200 014B                                           l2120 0058  
                                         l2018 02F0                                           l2050 0346  
                                         l2042 0341                                           l2034 0337  
                                         l2026 0464                                           l2106 0441  
                                         l2114 03C4                                           l2210 0187  
                                         l2202 0157                                           l2130 0085  
                                         l2122 006D                                           l2060 045B  
                                         l2052 0347                                           l2044 0343  
                                         l2036 0339                                           l2028 032F  
                                         l2108 0444                                           l2116 03CD  
                                         l2220 01D6                                           l2212 0198  
                                         l2204 0163                                           l2140 0094  
                                         l2132 0086                                           l2124 006D  
                                         l2070 044F                                           l2062 045E  
                                         l2054 0354                                           l2046 0344  
                                         l2038 033C                                           l2222 01E6  
                                         l2214 01AA                                           l2206 016F  
                                         l2150 00A8                                           l2142 0097  
                                         l2134 0087                                           l2126 007B  
                                         l2072 0450                                           l2080 0496  
                                         l2064 045F                                           l2056 0355  
                                         l2048 0345                                           l2240 0235  
                                         l2232 01F2                                           l2224 01EC  
                                         l2216 01BA                                           l2208 017B  
                                         l2160 00BC                                           l2152 00AB  
                                         l2144 009B                                           l2136 008C  
                                         l2128 007E                                           l2074 0451  
                                         l2090 036D                                           l2066 0462  
                                         l2058 0358                                           l2250 0260  
                                         l2242 0242                                           l2234 020F  
                                         l2226 01ED                                           l2218 01CA  
                                         l2170 00D0                                           l2162 00BF  
                                         l2154 00AF                                           l2146 00A0  
                                         l2138 008F                                           l2076 0456  
                                         l2068 044C                                           l2092 0376  
                                         l2084 035D                                           l2252 0264  
                                         l2244 0249                                           l2236 022C  
                                         l2180 00E4                                           l2172 00D3  
                                         l2164 00C3                                           l2156 00B4  
                                         l2148 00A3                                           l2094 037A  
                                         l2086 035D                                           l2246 024D  
                                         l2238 0230                                           l2190 010F  
                                         l2182 00E7                                           l2174 00D7  
                                         l2166 00C8                                           l2158 00B7  
                                         l2096 0380                                           l2088 0368  
                                         l2248 0256                                           l2192 011B  
                                         l2184 00EB                                           l2176 00DC  
                                         l2168 00CB                                           l2098 0381  
                                         l2194 0127                                           l2186 00F7  
                                         l2178 00DF                                           l2196 0133  
                                         l2188 0103                                           l2198 013F  
                                         l1980 0490                                           l1972 047E  
                                         l1990 0426                                           l1982 0412  
                                         l1974 0478                                           l1992 0428  
                                         l1984 0422                                           l1976 048A  
                                         l1986 0424                                           l1978 0484  
                                         l1994 02B7                                           l1988 0425  
                                         l1996 02B9                                           l1998 02C0  
                                         _LATA 0016                                           _LATB 0017  
                                         _LATC 0018                                           _PMD0 0796  
                                         _PMD1 0797                                           _PMD2 0798  
                                         _PMD3 0799                                           _PMD4 079A  
                                         _PMD5 079B                                           _WPUA 1F39  
                                         _WPUB 1F44                                           _WPUC 1F4F  
                                         _WPUE 1F65                                   __CFG_WRT$OFF 0000  
                                __CFG_FCMEN$ON 0000                                           _main 0058  
                                         fsr0h 0005                                           fsr1h 0007  
                                         indf0 0000                                           fsr0l 0004  
                                         indf1 0001                                           fsr1l 0006  
                                         btemp 007E                                  __CFG_BOREN$ON 0000  
                                         start 002B                                  __CFG_CSWEN$ON 0000  
                                __CFG_MCLRE$ON 0000                                  ?_EUSART_Write 0070  
               __size_of_OSCILLATOR_Initialize 0009                  __end_of_OSCILLATOR_Initialize 0464  
                                        _ADACQ 009D                                          _ADCAP 009B  
                                        _ADACT 0099                                          ?_main 0070  
                                        _ADCLK 0098                                          _ADCNT 010C  
                                        _ADPCH 009E                                          _ADREF 009A  
                                        _ADPRE 009C                                  __CFG_WDTE$OFF 0000  
                                        _ADRPT 010D                                 __CFG_DEBUG$OFF 0000  
                                        i1l314 001A                                          i1l315 0029  
                                        i1l260 03F5                                          i1l500 02AB  
                                        i1l502 02B6                                          i1l270 032E  
                                        i1l263 03F7                                          i1l319 0029  
                                        i1l280 049D                                          i1l248 03B0  
                                        i1l274 0411                                          i1l283 04A1  
                                        i1l277 04A2                                          _OSCEN 0891  
                                        u40_20 03A7                                          u40_21 03A6  
                                        u52_20 027D                                          u60_20 0022  
                                        u52_21 027C                                          u60_21 0021  
                                        u45_20 03DC                                          u53_20 028D  
                                        u45_21 03DB                                          u53_21 028C  
                                        u38_20 040B                                          u46_20 03EF  
                                        u54_20 02A1                                          u38_21 040A  
                                        u46_21 03EE                                          u54_21 02A0  
                                        u39_20 038D                                          u55_20 02B3  
                                        u47_20 0300                                          u39_21 038C  
                                        u55_21 02B2                                          u47_21 02FF  
                                        u48_20 0310                                          u56_20 000A  
                                        u48_21 030F                                          u56_21 0009  
                                        u49_20 0324                                          u57_20 000F  
                                        u49_21 0323                                          u57_21 000E  
                                        _TRISA 0011                                          _TRISB 0012  
                                        _TRISC 0013                                          u58_20 0013  
                                        u58_21 0012                                          u59_20 001E  
                                        u59_21 001D                                          _RXPPS 1ECB  
                                 main@scan_max 004A                                          main@i 00C4  
                                        pclath 000A                  max_with_threshold@scan_buffer 0076  
                                        status 0003                                          wtemp0 007E  
                              __initialization 002D                                   __end_of_main 0273  
                               ??_EUSART_Write 0072                    ?_INTERRUPT_InterruptManager 0070  
               ??_EUSART_SetRxInterruptHandler 0074                                         ??_main 0022  
                            main@scan_max_prev 0026                                         _ADACCH 0091  
                                       _ADACCL 0090      __end_of_EUSART_DefaultFramingErrorHandler 04A3  
   __size_of_EUSART_DefaultFramingErrorHandler 0001            ??_EUSART_DefaultFramingErrorHandler 0070  
           ?_EUSART_DefaultFramingErrorHandler 0070              _EUSART_DefaultFramingErrorHandler 04A2  
                                       _ADCON0 0093                                         _ADCON1 0094  
                                       _ADCON2 0095                                         _ADCON3 0096  
                   _EUSART_OverrunErrorHandler 00D8                                         _ADERRH 0117  
                                       _ADERRL 0116                                         _ADLTHH 010F  
                                       _ADLTHL 010E                                         _ADRESH 008D  
                                       _ADRESL 008C                                         _ADSTAT 0097  
                                       _ADUTHH 0111                                         _ADUTHL 0110  
                                       _ANSELA 1F38                                         _ANSELB 1F43  
                                       _ANSELC 1F4E                             __CFG_RSTOSC$HFINT1 0000  
                                       _RC1REG 0119                                         _RC1STA 011D  
                                       _RC5PPS 1F25                                         i1l1600 0401  
                                       _ODCONA 1F3A                                         i1l1602 0405  
                                       _ODCONB 1F45                                         _ODCONC 1F50  
                                       i1l1604 040B                                         i1l1606 040C  
                                       i1l1810 0282                                         i1l1660 03A1  
                                       i1l1652 0387                                         i1l1820 02A1  
                                       i1l1812 0288                                         i1l1804 0273  
                                       i1l1670 03AF                                         i1l1662 03A7  
                                       i1l1654 0387                                         i1l1822 02A8  
                                       i1l1814 028D                                         i1l1806 0278  
                                       i1l1830 000F                                         i1l1760 03E9  
                                       i1l1664 03A8                                         i1l1656 038D  
                                       i1l1824 02B3                                         i1l1816 0292  
                                       i1l1808 027D                                         i1l1832 0013  
                                       i1l1674 049A                                         i1l1762 03EF  
                                       i1l1754 03D5                                         i1l1666 03AA  
                                       i1l1658 039D                                         i1l1818 0298  
                                       i1l1770 0300                                         i1l1834 001E  
                                       i1l1826 0006                                         i1l1676 049E  
                                       i1l1764 03F0                                         i1l1756 03DC  
                                       i1l1668 03AD                                         i1l1780 031B  
                                       i1l1772 0305                                         i1l1836 0022  
                                       i1l1828 000A                                         i1l1598 03F8  
                                       i1l1758 03E4                                         i1l1782 0324  
                                       i1l1774 030B                                         i1l1766 02F6  
                                       i1l1784 032B                                         i1l1776 0310  
                                       i1l1768 02FB                                         i1l1778 0315  
                               __CFG_WDTCCS$SC 0000                                         _INLVLA 1F3C  
                                       _INLVLB 1F47                                         _INLVLC 1F52  
                                       _INLVLE 1F68                                         _OSCFRQ 0893  
                                       _TX1REG 011A                                         _TX1STA 011E  
                               __CFG_PWRTE$OFF 0000                                 __CFG_STVREN$ON 0000  
                          _EUSART_Transmit_ISR 03D5                                _ADCC_Initialize 0412  
                               _PMD_Initialize 0464              __size_of_ADCC_GetSingleConversion 0010  
                    ?_ADCC_GetSingleConversion 0072                     max_with_threshold@scan_max 0078  
                         ?_EUSART_Transmit_ISR 0070                           __size_of_EUSART_Read 002A  
                            _SYSTEM_Initialize 043B                        __end_of__initialization 0054  
                           ?_SYSTEM_Initialize 0070           __end_of_EUSART_SetTxInterruptHandler 047E  
        __size_of_EUSART_SetTxInterruptHandler 0006                   _EUSART_SetTxInterruptHandler 0478  
                               __pcstackCOMMON 0070                                   __pidataBANK1 042B  
                          ??_SYSTEM_Initialize 0075                         __end_of_PMD_Initialize 046C  
                         _eusartRxStatusBuffer 00A0                ??_EUSART_SetOverrunErrorHandler 0074  
                    __end_of_SYSTEM_Initialize 044B                          ??_EUSART_Transmit_ISR 0070  
                                   __pbssBANK1 00A0                                     __pbssBANK2 0120  
                                   __pbssBANK3 01A0                           __end_of_EUSART_Write 0387  
                  __size_of_EUSART_Receive_ISR 0039                             _max_with_threshold 03B1  
                                   __pmaintext 0058                  ?_EUSART_SetTxInterruptHandler 0072  
             _EUSART_TxDefaultInterruptHandler 00DE                                __CFG_PPS1WAY$ON 0000  
                      __end_of_ADCC_Initialize 042B                                     __pintentry 0004  
                                      _ADFLTRH 0115                                        _ADFLTRL 0114  
                          ?_max_with_threshold 0076                                        _ADPREVH 008F  
                                      _ADPREVL 008E                                        _ADSTPTH 0113  
                                      _ADSTPTL 0112                   ??_EUSART_DefaultErrorHandler 0071  
                              ?_PMD_Initialize 0070                                  _eusartRxCount 00B2  
                                      _SP1BRGH 011C                                        _SP1BRGL 011B  
                                      _OSCCON1 088D                                        _OSCCON3 088F  
                __size_of_EUSART_RxDataHandler 001A                                        _OSCTUNE 0892  
                                      _SLRCONA 1F3B                                        _SLRCONB 1F46  
                                      _SLRCONC 1F51                       ??_EUSART_SetErrorHandler 0074  
                         ??_max_with_threshold 0020                       ??_UserRxInterruptHandler 0072  
          __size_of_EUSART_DefaultErrorHandler 0004                           __CFG_SCANE$available 0000  
                                      __ptext1 03B1                                        __ptext2 043B  
                                      __ptext3 0464                                        __ptext4 032F  
                                      __ptext5 045B                                        __ptext6 02B7  
                                      __ptext7 0478                                        __ptext8 047E  
                                      __ptext9 0484                          _OSCILLATOR_Initialize 045B  
                     ??_PIN_MANAGER_Initialize 0072                     __size_of_SYSTEM_Initialize 0010  
                                      clrloop0 0473                           end_of_initialization 0054  
        __end_of_EUSART_SetOverrunErrorHandler 048A         __size_of_EUSART_SetOverrunErrorHandler 0006  
                _EUSART_SetOverrunErrorHandler 0484                                        init_ram 046C  
                                      initloop 046D                              _EUSART_Initialize 02B7  
                           ?_EUSART_Initialize 0070                                     main@F11807 01C4  
                                   main@F11816 00C6                                     main@F11809 01A0  
                             ?_ADCC_Initialize 0070               __end_of_ADCC_GetSingleConversion 045B  
                        __CFG_WDTCPS$WDTCPS_31 0000                            ??_EUSART_Initialize 0074  
               ??_EUSART_SetTxInterruptHandler 0074                                      _PORTBbits 000D  
                        __size_of_EUSART_Write 002B                               __CFG_FEXTOSC$OFF 0000  
              __size_of_EUSART_SetErrorHandler 0006                      __end_of_EUSART_Initialize 02F6  
              __size_of_UserRxInterruptHandler 0044                                     main@packet 006E  
                                   _tx_request 00B0             __end_of_EUSART_DefaultErrorHandler 04A2  
                   _EUSART_DefaultErrorHandler 049E                                   _EUSART_Write 035C  
                       ?_OSCILLATOR_Initialize 0070                            start_initialization 002D  
              __size_of_PIN_MANAGER_Initialize 002D                                  ??_EUSART_Read 0070  
 EUSART_SetRxInterruptHandler@interruptHandler 0072   EUSART_SetTxInterruptHandler@interruptHandler 0072  
               ?_EUSART_SetOverrunErrorHandler 0072                               __CFG_LPBOREN$OFF 0000  
                   _EUSART_FramingErrorHandler 00DA                               ??_PMD_Initialize 0072  
                       _EUSART_SetErrorHandler 0490                                    __pdataBANK1 00C6  
                       _UserRxInterruptHandler 0273                       _ADCC_GetSingleConversion 044B  
                  __end_of_EUSART_Transmit_ISR 03F8                                    __pbssCOMMON 0079  
                                    ___latbits 0004                                  __pcstackBANK0 0020  
                                __pcstackBANK1 00B4                     __end_of_EUSART_Receive_ISR 032F  
                   __size_of_EUSART_Initialize 003F               _EUSART_RxDefaultInterruptHandler 00DC  
                          __end_of_EUSART_Read 03B1                                      __pnvBANK1 00D6  
                 __end_of_EUSART_RxDataHandler 0412                         _PIN_MANAGER_Initialize 032F  
                         EUSART_Read@readValue 0071                ADCC_GetSingleConversion@channel 0075  
                                 _eusartRxHead 007A                                   _eusartTxHead 007B  
                                 _eusartRxTail 0079                                   _eusartTxTail 00B3  
                 ??_INTERRUPT_InterruptManager 0072                        _eusartTxBufferRemaining 00E0  
                                     _BAUD1CON 011F                    __size_of_max_with_threshold 0024  
                               _eusartRxBuffer 00A8                                 _eusartTxBuffer 0120  
       EUSART_SetErrorHandler@interruptHandler 0072                                       _LATCbits 0018  
                                    clear_ram0 0472                                       _PIE3bits 0719  
                            _eusartRxLastError 00B1            __size_of_INTERRUPT_InterruptManager 0027  
              ??_EUSART_SetFramingErrorHandler 0074                                       _PIR3bits 070F  
                            _EUSART_is_tx_done 0496      __end_of_EUSART_DefaultOverrunErrorHandler 049E  
   __size_of_EUSART_DefaultOverrunErrorHandler 0004            ??_EUSART_DefaultOverrunErrorHandler 0070  
           ?_EUSART_DefaultOverrunErrorHandler 0070              _EUSART_DefaultOverrunErrorHandler 049A  
                           ?_EUSART_is_tx_done 0070                                     _ADCON0bits 0093  
                                   _ADCON1bits 0094                                     _ADCON2bits 0095  
                                   _ADCON3bits 0096                            ??_EUSART_is_tx_done 0072  
                                  _EUSART_Read 0387                                     _ADSTATbits 0097  
                    __end_of_EUSART_is_tx_done 049A                        ??_OSCILLATOR_Initialize 0072  
                          _EUSART_ErrorHandler 00D6                    ?_EUSART_DefaultErrorHandler 0070  
                     __size_of_ADCC_Initialize 0019                           _EUSART_RxDataHandler 03F8  
                                     __ptext10 048A                                       __ptext11 0490  
                                     __ptext20 03D5                                       __ptext12 0412  
                                     __ptext21 049A                                       __ptext13 0496  
                                     __ptext22 04A2                                       __ptext14 035C  
                                     __ptext23 049E                                       __ptext15 044B  
                                     __ptext24 03F8                                       __ptext17 02F6  
                                     __ptext18 0273                                       __ptext19 0387  
                                __size_of_main 021B                           __CFG_WDTCWS$WDTCWS_7 0000  
                      ?_EUSART_SetErrorHandler 0072                                     _RC1STAbits 011D  
EUSART_SetOverrunErrorHandler@interruptHandler 0072                     ??_ADCC_GetSingleConversion 0075  
                                     int$flags 007E                        ?_UserRxInterruptHandler 0070  
           __end_of_INTERRUPT_InterruptManager 002B                     _INTERRUPT_InterruptManager 0004  
        __end_of_EUSART_SetFramingErrorHandler 0490         __size_of_EUSART_SetFramingErrorHandler 0006  
                _EUSART_SetFramingErrorHandler 048A                                     _INTCONbits 000B  
                        ?_EUSART_RxDataHandler 0070                                       intlevel1 0000  
                      ?_PIN_MANAGER_Initialize 0070                 __end_of_EUSART_SetErrorHandler 0496  
                            __CFG_CLKOUTEN$OFF 0000                     __size_of_EUSART_is_tx_done 0004  
         __end_of_EUSART_SetRxInterruptHandler 0484          __size_of_EUSART_SetRxInterruptHandler 0006  
                 _EUSART_SetRxInterruptHandler 047E                 __end_of_UserRxInterruptHandler 02B7  
                           _EUSART_Receive_ISR 02F6  EUSART_SetFramingErrorHandler@interruptHandler 0072  
                          ?_EUSART_Receive_ISR 0070                                     _TX1STAbits 011E  
                           EUSART_Write@txData 0073                   __size_of_EUSART_Transmit_ISR 0023  
               __end_of_PIN_MANAGER_Initialize 035C                              ??_ADCC_Initialize 0072  
                         ??_EUSART_Receive_ISR 0071                                    main@IOvalue 00B4  
